# SymbolsHelper-Confirmed: 1.7.0 amd64
libqgpgme.so.6 libqgpgme6 #MINVER#
 _Z18GPGPME_BACKEND_LOGv@Base 1.7.0
 _ZN10QByteArrayD1Ev@Base 1.7.0
 _ZN10QByteArrayD2Ev@Base 1.7.0
 _ZN21QGpgMENewCryptoConfig19reloadConfigurationEb@Base 1.7.0
 _ZN21QGpgMENewCryptoConfig4syncEb@Base 1.7.0
 _ZN21QGpgMENewCryptoConfig5clearEv@Base 1.7.0
 _ZN21QGpgMENewCryptoConfigC1Ev@Base 1.7.0
 _ZN21QGpgMENewCryptoConfigC2Ev@Base 1.7.0
 _ZN21QGpgMENewCryptoConfigD0Ev@Base 1.7.0
 _ZN21QGpgMENewCryptoConfigD1Ev@Base 1.7.0
 _ZN21QGpgMENewCryptoConfigD2Ev@Base 1.7.0
 _ZN26QGpgMENewCryptoConfigEntry11setIntValueEi@Base 1.7.0
 _ZN26QGpgMENewCryptoConfigEntry11setURLValueERK4QUrl@Base 1.7.0
 _ZN26QGpgMENewCryptoConfigEntry12setBoolValueEb@Base 1.7.0
 _ZN26QGpgMENewCryptoConfigEntry12setUIntValueEj@Base 1.7.0
 _ZN26QGpgMENewCryptoConfigEntry14resetToDefaultEv@Base 1.7.0
 _ZN26QGpgMENewCryptoConfigEntry14setStringValueERK7QString@Base 1.7.0
 _ZN26QGpgMENewCryptoConfigEntry15setIntValueListERKSt6vectorIiSaIiEE@Base 1.7.0
 _ZN26QGpgMENewCryptoConfigEntry15setURLValueListERK5QListI4QUrlE@Base 1.7.0
 _ZN26QGpgMENewCryptoConfigEntry16setUIntValueListERKSt6vectorIjSaIjEE@Base 1.7.0
 _ZN26QGpgMENewCryptoConfigEntry19setNumberOfTimesSetEj@Base 1.7.0
 _ZN26QGpgMENewCryptoConfigEntryC1ERKSt10shared_ptrI26QGpgMENewCryptoConfigGroupERKN5GpgME13Configuration6OptionE@Base 1.7.0
 _ZN26QGpgMENewCryptoConfigEntryC2ERKSt10shared_ptrI26QGpgMENewCryptoConfigGroupERKN5GpgME13Configuration6OptionE@Base 1.7.0
 _ZN26QGpgMENewCryptoConfigEntryD0Ev@Base 1.7.0
 _ZN26QGpgMENewCryptoConfigEntryD1Ev@Base 1.7.0
 _ZN26QGpgMENewCryptoConfigEntryD2Ev@Base 1.7.0
 _ZN26QGpgMENewCryptoConfigGroupC1ERKSt10shared_ptrI30QGpgMENewCryptoConfigComponentERKN5GpgME13Configuration6OptionE@Base 1.7.0
 _ZN26QGpgMENewCryptoConfigGroupC2ERKSt10shared_ptrI30QGpgMENewCryptoConfigComponentERKN5GpgME13Configuration6OptionE@Base 1.7.0
 _ZN26QGpgMENewCryptoConfigGroupD0Ev@Base 1.7.0
 _ZN26QGpgMENewCryptoConfigGroupD1Ev@Base 1.7.0
 _ZN26QGpgMENewCryptoConfigGroupD2Ev@Base 1.7.0
 _ZN30QGpgMENewCryptoConfigComponent12setComponentERKN5GpgME13Configuration9ComponentE@Base 1.7.0
 _ZN30QGpgMENewCryptoConfigComponent4syncEb@Base 1.7.0
 _ZN30QGpgMENewCryptoConfigComponentC1Ev@Base 1.7.0
 _ZN30QGpgMENewCryptoConfigComponentC2Ev@Base 1.7.0
 _ZN30QGpgMENewCryptoConfigComponentD0Ev@Base 1.7.0
 _ZN30QGpgMENewCryptoConfigComponentD1Ev@Base 1.7.0
 _ZN30QGpgMENewCryptoConfigComponentD2Ev@Base 1.7.0
 _ZN5GpgME12ImportResultD1Ev@Base 1.7.0
 _ZN5GpgME12ImportResultD2Ev@Base 1.7.0
 _ZN5GpgME13KeyListResultD1Ev@Base 1.7.0
 _ZN5GpgME13KeyListResultD2Ev@Base 1.7.0
 _ZN5GpgME13SigningResultD1Ev@Base 1.7.0
 _ZN5GpgME13SigningResultD2Ev@Base 1.7.0
 _ZN5GpgME16DecryptionResultD1Ev@Base 1.7.0
 _ZN5GpgME16DecryptionResultD2Ev@Base 1.7.0
 _ZN5GpgME16EncryptionResultD1Ev@Base 1.7.0
 _ZN5GpgME16EncryptionResultD2Ev@Base 1.7.0
 _ZN5GpgME18VerificationResultD1Ev@Base 1.7.0
 _ZN5GpgME18VerificationResultD2Ev@Base 1.7.0
 _ZN5GpgME19KeyGenerationResultD1Ev@Base 1.7.0
 _ZN5GpgME19KeyGenerationResultD2Ev@Base 1.7.0
 _ZN5GpgME5Error19__safe_bool_dummy__7nonnullEv@Base 1.7.0
 (optional=templinst)_ZN5QHashI7QStringSt10shared_ptrI26QGpgMENewCryptoConfigEntryEE11deleteNode2EPN9QHashData4NodeE@Base 1.7.0
 (optional=templinst)_ZN5QHashI7QStringSt10shared_ptrI26QGpgMENewCryptoConfigEntryEE13duplicateNodeEPN9QHashData4NodeEPv@Base 1.7.0
 (optional=templinst)_ZN5QHashI7QStringSt10shared_ptrI26QGpgMENewCryptoConfigGroupEE11deleteNode2EPN9QHashData4NodeE@Base 1.7.0
 (optional=templinst)_ZN5QHashI7QStringSt10shared_ptrI26QGpgMENewCryptoConfigGroupEE13duplicateNodeEPN9QHashData4NodeEPv@Base 1.7.0
 (optional=templinst)_ZN5QHashI7QStringSt10shared_ptrI30QGpgMENewCryptoConfigComponentEE11deleteNode2EPN9QHashData4NodeE@Base 1.7.0
 (optional=templinst)_ZN5QHashI7QStringSt10shared_ptrI30QGpgMENewCryptoConfigComponentEE13detach_helperEv@Base 1.7.0
 (optional=templinst)_ZN5QHashI7QStringSt10shared_ptrI30QGpgMENewCryptoConfigComponentEE13duplicateNodeEPN9QHashData4NodeEPv@Base 1.7.0
 (optional=templinst)_ZN5QListI10QByteArrayE18detach_helper_growEii@Base 1.7.0
 (optional=templinst)_ZN5QListI10QByteArrayE6appendERKS0_@Base 1.7.0
 (optional=templinst)_ZN5QListI10QByteArrayED1Ev@Base 1.7.0
 (optional=templinst)_ZN5QListI10QByteArrayED2Ev@Base 1.7.0
 (optional=templinst)_ZN5QListI4QUrlE18detach_helper_growEii@Base 1.7.0
 (optional=templinst)_ZN5QListI4QUrlE6appendERKS0_@Base 1.7.0
 (optional=templinst)_ZN5QListI4QUrlEC1ERKS1_@Base 1.7.0
 (optional=templinst)_ZN5QListI4QUrlEC2ERKS1_@Base 1.7.0
 (optional=templinst)_ZN5QListI4QUrlED1Ev@Base 1.7.0
 (optional=templinst)_ZN5QListI4QUrlED2Ev@Base 1.7.0
 (optional=templinst)_ZN5QListI7QStringE13detach_helperEi@Base 1.7.0
 (optional=templinst)_ZN5QListI7QStringE18detach_helper_growEii@Base 1.7.0
 (optional=templinst)_ZN5QListI7QStringE6appendERKS0_@Base 1.7.0
 (optional=templinst)_ZN5QListI7QStringEC1ERKS1_@Base 1.7.0
 (optional=templinst)_ZN5QListI7QStringEC2ERKS1_@Base 1.7.0
 (optional=templinst)_ZN5QListI7QStringED1Ev@Base 1.7.0
 (optional=templinst)_ZN5QListI7QStringED2Ev@Base 1.7.0
 _ZN6QGpgME10DecryptJob11qt_metacallEN11QMetaObject4CallEiPPv@Base 1.7.0
 _ZN6QGpgME10DecryptJob11qt_metacastEPKc@Base 1.7.0
 _ZN6QGpgME10DecryptJob16staticMetaObjectE@Base 1.7.0
 _ZN6QGpgME10DecryptJob6resultERKN5GpgME16DecryptionResultERK10QByteArrayRK7QStringRKNS1_5ErrorE@Base 1.7.0
 _ZN6QGpgME10DecryptJobC1EP7QObject@Base 1.7.0
 _ZN6QGpgME10DecryptJobC2EP7QObject@Base 1.7.0
 _ZN6QGpgME10DecryptJobD0Ev@Base 1.7.0
 _ZN6QGpgME10DecryptJobD1Ev@Base 1.7.0
 _ZN6QGpgME10DecryptJobD2Ev@Base 1.7.0
 _ZN6QGpgME10EncryptJob11qt_metacallEN11QMetaObject4CallEiPPv@Base 1.7.0
 _ZN6QGpgME10EncryptJob11qt_metacastEPKc@Base 1.7.0
 _ZN6QGpgME10EncryptJob16staticMetaObjectE@Base 1.7.0
 _ZN6QGpgME10EncryptJob6resultERKN5GpgME16EncryptionResultERK10QByteArrayRK7QStringRKNS1_5ErrorE@Base 1.7.0
 _ZN6QGpgME10EncryptJobC1EP7QObject@Base 1.7.0
 _ZN6QGpgME10EncryptJobC2EP7QObject@Base 1.7.0
 _ZN6QGpgME10EncryptJobD0Ev@Base 1.7.0
 _ZN6QGpgME10EncryptJobD1Ev@Base 1.7.0
 _ZN6QGpgME10EncryptJobD2Ev@Base 1.7.0
 _ZN6QGpgME10KeyListJob11qt_metacallEN11QMetaObject4CallEiPPv@Base 1.7.0
 _ZN6QGpgME10KeyListJob11qt_metacastEPKc@Base 1.7.0
 _ZN6QGpgME10KeyListJob16staticMetaObjectE@Base 1.7.0
 _ZN6QGpgME10KeyListJob6resultERKN5GpgME13KeyListResultERKSt6vectorINS1_3KeyESaIS6_EERK7QStringRKNS1_5ErrorE@Base 1.7.0
 _ZN6QGpgME10KeyListJob7nextKeyERKN5GpgME3KeyE@Base 1.7.0
 _ZN6QGpgME10KeyListJobC1EP7QObject@Base 1.7.0
 _ZN6QGpgME10KeyListJobC2EP7QObject@Base 1.7.0
 _ZN6QGpgME10KeyListJobD0Ev@Base 1.7.0
 _ZN6QGpgME10KeyListJobD1Ev@Base 1.7.0
 _ZN6QGpgME10KeyListJobD2Ev@Base 1.7.0
 _ZN6QGpgME10SignKeyJob11qt_metacallEN11QMetaObject4CallEiPPv@Base 1.7.0
 _ZN6QGpgME10SignKeyJob11qt_metacastEPKc@Base 1.7.0
 _ZN6QGpgME10SignKeyJob16staticMetaObjectE@Base 1.7.0
 _ZN6QGpgME10SignKeyJob6resultERKN5GpgME5ErrorERK7QStringS4_@Base 1.7.0
 _ZN6QGpgME10SignKeyJobC1EP7QObject@Base 1.7.0
 _ZN6QGpgME10SignKeyJobC2EP7QObject@Base 1.7.0
 _ZN6QGpgME10SignKeyJobD0Ev@Base 1.7.0
 _ZN6QGpgME10SignKeyJobD1Ev@Base 1.7.0
 _ZN6QGpgME10SignKeyJobD2Ev@Base 1.7.0
 _ZN6QGpgME10SpecialJob11qt_metacallEN11QMetaObject4CallEiPPv@Base 1.7.0
 _ZN6QGpgME10SpecialJob11qt_metacastEPKc@Base 1.7.0
 _ZN6QGpgME10SpecialJob16staticMetaObjectE@Base 1.7.0
 _ZN6QGpgME10SpecialJob6resultERKN5GpgME5ErrorERK8QVariant@Base 1.7.0
 _ZN6QGpgME10SpecialJobC1EP7QObject@Base 1.7.0
 _ZN6QGpgME10SpecialJobC2EP7QObject@Base 1.7.0
 _ZN6QGpgME10SpecialJobD0Ev@Base 1.7.0
 _ZN6QGpgME10SpecialJobD1Ev@Base 1.7.0
 _ZN6QGpgME10SpecialJobD2Ev@Base 1.7.0
 _ZN6QGpgME11DownloadJob11qt_metacallEN11QMetaObject4CallEiPPv@Base 1.7.0
 _ZN6QGpgME11DownloadJob11qt_metacastEPKc@Base 1.7.0
 _ZN6QGpgME11DownloadJob16staticMetaObjectE@Base 1.7.0
 _ZN6QGpgME11DownloadJob6resultERKN5GpgME5ErrorERK10QByteArrayRK7QStringS4_@Base 1.7.0
 _ZN6QGpgME11DownloadJobC1EP7QObject@Base 1.7.0
 _ZN6QGpgME11DownloadJobC2EP7QObject@Base 1.7.0
 _ZN6QGpgME11DownloadJobD0Ev@Base 1.7.0
 _ZN6QGpgME11DownloadJobD1Ev@Base 1.7.0
 _ZN6QGpgME11DownloadJobD2Ev@Base 1.7.0
 _ZN6QGpgME12AddUserIDJob11qt_metacallEN11QMetaObject4CallEiPPv@Base 1.7.0
 _ZN6QGpgME12AddUserIDJob11qt_metacastEPKc@Base 1.7.0
 _ZN6QGpgME12AddUserIDJob16staticMetaObjectE@Base 1.7.0
 _ZN6QGpgME12AddUserIDJob6resultERKN5GpgME5ErrorERK7QStringS4_@Base 1.7.0
 _ZN6QGpgME12AddUserIDJobC1EP7QObject@Base 1.7.0
 _ZN6QGpgME12AddUserIDJobC2EP7QObject@Base 1.7.0
 _ZN6QGpgME12AddUserIDJobD0Ev@Base 1.7.0
 _ZN6QGpgME12AddUserIDJobD1Ev@Base 1.7.0
 _ZN6QGpgME12AddUserIDJobD2Ev@Base 1.7.0
 _ZN6QGpgME12cryptoConfigEv@Base 1.7.0
 _ZN6QGpgME13QGpgMEBackend5SMIMEE@Base 1.7.0
 _ZN6QGpgME13QGpgMEBackend7OpenPGPE@Base 1.7.0
 _ZN6QGpgME13QGpgMEBackendC1Ev@Base 1.7.0
 _ZN6QGpgME13QGpgMEBackendC2Ev@Base 1.7.0
 _ZN6QGpgME13QGpgMEBackendD1Ev@Base 1.7.0
 _ZN6QGpgME13QGpgMEBackendD2Ev@Base 1.7.0
 _ZN6QGpgME13QGpgMESignJob10resultHookERKSt5tupleIJN5GpgME13SigningResultE10QByteArray7QStringNS2_5ErrorEEE@Base 1.7.0
 _ZN6QGpgME13QGpgMESignJob11qt_metacallEN11QMetaObject4CallEiPPv@Base 1.7.0
 _ZN6QGpgME13QGpgMESignJob11qt_metacastEPKc@Base 1.7.0
 _ZN6QGpgME13QGpgMESignJob16staticMetaObjectE@Base 1.7.0
 _ZN6QGpgME13QGpgMESignJob24setOutputIsBase64EncodedEb@Base 1.7.0
 _ZN6QGpgME13QGpgMESignJob4execERKSt6vectorIN5GpgME3KeyESaIS3_EERK10QByteArrayNS2_13SignatureModeERS8_@Base 1.7.0
 _ZN6QGpgME13QGpgMESignJob5startERKSt6vectorIN5GpgME3KeyESaIS3_EERK10QByteArrayNS2_13SignatureModeE@Base 1.7.0
 _ZN6QGpgME13QGpgMESignJob5startERKSt6vectorIN5GpgME3KeyESaIS3_EERKSt10shared_ptrI9QIODeviceESC_NS2_13SignatureModeE@Base 1.7.0
 _ZN6QGpgME13QGpgMESignJobC1EPN5GpgME7ContextE@Base 1.7.0
 _ZN6QGpgME13QGpgMESignJobC2EPN5GpgME7ContextE@Base 1.7.0
 _ZN6QGpgME13QGpgMESignJobD0Ev@Base 1.7.0
 _ZN6QGpgME13QGpgMESignJobD1Ev@Base 1.7.0
 _ZN6QGpgME13QGpgMESignJobD2Ev@Base 1.7.0
 _ZN6QGpgME13TofuPolicyJob11qt_metacallEN11QMetaObject4CallEiPPv@Base 1.7.0
 _ZN6QGpgME13TofuPolicyJob11qt_metacastEPKc@Base 1.7.0
 _ZN6QGpgME13TofuPolicyJob16staticMetaObjectE@Base 1.7.0
 _ZN6QGpgME13TofuPolicyJob6resultERKN5GpgME5ErrorERK7QStringS4_@Base 1.7.0
 _ZN6QGpgME13TofuPolicyJobC1EP7QObject@Base 1.7.0
 _ZN6QGpgME13TofuPolicyJobC2EP7QObject@Base 1.7.0
 _ZN6QGpgME13TofuPolicyJobD0Ev@Base 1.7.0
 _ZN6QGpgME13TofuPolicyJobD1Ev@Base 1.7.0
 _ZN6QGpgME13TofuPolicyJobD2Ev@Base 1.7.0
 _ZN6QGpgME13WKSPublishJob11qt_metacallEN11QMetaObject4CallEiPPv@Base 1.7.0
 _ZN6QGpgME13WKSPublishJob11qt_metacastEPKc@Base 1.7.0
 _ZN6QGpgME13WKSPublishJob16staticMetaObjectE@Base 1.7.0
 _ZN6QGpgME13WKSPublishJob6resultERKN5GpgME5ErrorERK10QByteArrayS7_RK7QStringS4_@Base 1.7.0
 _ZN6QGpgME13WKSPublishJobC1EP7QObject@Base 1.7.0
 _ZN6QGpgME13WKSPublishJobC2EP7QObject@Base 1.7.0
 _ZN6QGpgME13WKSPublishJobD0Ev@Base 1.7.0
 _ZN6QGpgME13WKSPublishJobD1Ev@Base 1.7.0
 _ZN6QGpgME13WKSPublishJobD2Ev@Base 1.7.0
 _ZN6QGpgME14ListAllKeysJob11qt_metacallEN11QMetaObject4CallEiPPv@Base 1.7.0
 _ZN6QGpgME14ListAllKeysJob11qt_metacastEPKc@Base 1.7.0
 _ZN6QGpgME14ListAllKeysJob16staticMetaObjectE@Base 1.7.0
 _ZN6QGpgME14ListAllKeysJob6resultERKN5GpgME13KeyListResultERKSt6vectorINS1_3KeyESaIS6_EESA_RK7QStringRKNS1_5ErrorE@Base 1.7.0
 _ZN6QGpgME14ListAllKeysJobC1EP7QObject@Base 1.7.0
 _ZN6QGpgME14ListAllKeysJobC2EP7QObject@Base 1.7.0
 _ZN6QGpgME14ListAllKeysJobD0Ev@Base 1.7.0
 _ZN6QGpgME14ListAllKeysJobD1Ev@Base 1.7.0
 _ZN6QGpgME14ListAllKeysJobD2Ev@Base 1.7.0
 _ZN6QGpgME14RefreshKeysJob11qt_metacallEN11QMetaObject4CallEiPPv@Base 1.7.0
 _ZN6QGpgME14RefreshKeysJob11qt_metacastEPKc@Base 1.7.0
 _ZN6QGpgME14RefreshKeysJob16staticMetaObjectE@Base 1.7.0
 _ZN6QGpgME14RefreshKeysJob6resultERKN5GpgME5ErrorE@Base 1.7.0
 _ZN6QGpgME14RefreshKeysJobC1EP7QObject@Base 1.7.0
 _ZN6QGpgME14RefreshKeysJobC2EP7QObject@Base 1.7.0
 _ZN6QGpgME14RefreshKeysJobD0Ev@Base 1.7.0
 _ZN6QGpgME14RefreshKeysJobD1Ev@Base 1.7.0
 _ZN6QGpgME14RefreshKeysJobD2Ev@Base 1.7.0
 _ZN6QGpgME14SignEncryptJob11qt_metacallEN11QMetaObject4CallEiPPv@Base 1.7.0
 _ZN6QGpgME14SignEncryptJob11qt_metacastEPKc@Base 1.7.0
 _ZN6QGpgME14SignEncryptJob16staticMetaObjectE@Base 1.7.0
 _ZN6QGpgME14SignEncryptJob6resultERKN5GpgME13SigningResultERKNS1_16EncryptionResultERK10QByteArrayRK7QStringRKNS1_5ErrorE@Base 1.7.0
 _ZN6QGpgME14SignEncryptJobC1EP7QObject@Base 1.7.0
 _ZN6QGpgME14SignEncryptJobC2EP7QObject@Base 1.7.0
 _ZN6QGpgME14SignEncryptJobD0Ev@Base 1.7.0
 _ZN6QGpgME14SignEncryptJobD1Ev@Base 1.7.0
 _ZN6QGpgME14SignEncryptJobD2Ev@Base 1.7.0
 _ZN6QGpgME15ChangeExpiryJob11qt_metacallEN11QMetaObject4CallEiPPv@Base 1.7.0
 _ZN6QGpgME15ChangeExpiryJob11qt_metacastEPKc@Base 1.7.0
 _ZN6QGpgME15ChangeExpiryJob16staticMetaObjectE@Base 1.7.0
 _ZN6QGpgME15ChangeExpiryJob6resultERKN5GpgME5ErrorERK7QStringS4_@Base 1.7.0
 _ZN6QGpgME15ChangeExpiryJobC1EP7QObject@Base 1.7.0
 _ZN6QGpgME15ChangeExpiryJobC2EP7QObject@Base 1.7.0
 _ZN6QGpgME15ChangeExpiryJobD0Ev@Base 1.7.0
 _ZN6QGpgME15ChangeExpiryJobD1Ev@Base 1.7.0
 _ZN6QGpgME15ChangeExpiryJobD2Ev@Base 1.7.0
 _ZN6QGpgME15ChangePasswdJob11qt_metacallEN11QMetaObject4CallEiPPv@Base 1.7.0
 _ZN6QGpgME15ChangePasswdJob11qt_metacastEPKc@Base 1.7.0
 _ZN6QGpgME15ChangePasswdJob16staticMetaObjectE@Base 1.7.0
 _ZN6QGpgME15ChangePasswdJob6resultERKN5GpgME5ErrorERK7QStringS4_@Base 1.7.0
 _ZN6QGpgME15ChangePasswdJobC1EP7QObject@Base 1.7.0
 _ZN6QGpgME15ChangePasswdJobC2EP7QObject@Base 1.7.0
 _ZN6QGpgME15ChangePasswdJobD0Ev@Base 1.7.0
 _ZN6QGpgME15ChangePasswdJobD1Ev@Base 1.7.0
 _ZN6QGpgME15ChangePasswdJobD2Ev@Base 1.7.0
 _ZN6QGpgME15QGpgMEDeleteJob11qt_metacallEN11QMetaObject4CallEiPPv@Base 1.7.0
 _ZN6QGpgME15QGpgMEDeleteJob11qt_metacastEPKc@Base 1.7.0
 _ZN6QGpgME15QGpgMEDeleteJob16staticMetaObjectE@Base 1.7.0
 _ZN6QGpgME15QGpgMEDeleteJob5startERKN5GpgME3KeyEb@Base 1.7.0
 _ZN6QGpgME15QGpgMEDeleteJobC1EPN5GpgME7ContextE@Base 1.7.0
 _ZN6QGpgME15QGpgMEDeleteJobC2EPN5GpgME7ContextE@Base 1.7.0
 _ZN6QGpgME15QGpgMEDeleteJobD0Ev@Base 1.7.0
 _ZN6QGpgME15QGpgMEDeleteJobD1Ev@Base 1.7.0
 _ZN6QGpgME15QGpgMEDeleteJobD2Ev@Base 1.7.0
 _ZN6QGpgME15QGpgMEExportJob11qt_metacallEN11QMetaObject4CallEiPPv@Base 1.7.0
 _ZN6QGpgME15QGpgMEExportJob11qt_metacastEPKc@Base 1.7.0
 _ZN6QGpgME15QGpgMEExportJob16staticMetaObjectE@Base 1.7.0
 _ZN6QGpgME15QGpgMEExportJob5startERK11QStringList@Base 1.7.0
 _ZN6QGpgME15QGpgMEExportJobC1EPN5GpgME7ContextE@Base 1.7.0
 _ZN6QGpgME15QGpgMEExportJobC2EPN5GpgME7ContextE@Base 1.7.0
 _ZN6QGpgME15QGpgMEExportJobD0Ev@Base 1.7.0
 _ZN6QGpgME15QGpgMEExportJobD1Ev@Base 1.7.0
 _ZN6QGpgME15QGpgMEExportJobD2Ev@Base 1.7.0
 _ZN6QGpgME15QGpgMEImportJob10resultHookERKSt5tupleIJN5GpgME12ImportResultE7QStringNS2_5ErrorEEE@Base 1.7.0
 _ZN6QGpgME15QGpgMEImportJob11qt_metacallEN11QMetaObject4CallEiPPv@Base 1.7.0
 _ZN6QGpgME15QGpgMEImportJob11qt_metacastEPKc@Base 1.7.0
 _ZN6QGpgME15QGpgMEImportJob16staticMetaObjectE@Base 1.7.0
 _ZN6QGpgME15QGpgMEImportJob4execERK10QByteArray@Base 1.7.0
 _ZN6QGpgME15QGpgMEImportJob5startERK10QByteArray@Base 1.7.0
 _ZN6QGpgME15QGpgMEImportJobC1EPN5GpgME7ContextE@Base 1.7.0
 _ZN6QGpgME15QGpgMEImportJobC2EPN5GpgME7ContextE@Base 1.7.0
 _ZN6QGpgME15QGpgMEImportJobD0Ev@Base 1.7.0
 _ZN6QGpgME15QGpgMEImportJobD1Ev@Base 1.7.0
 _ZN6QGpgME15QGpgMEImportJobD2Ev@Base 1.7.0
 _ZN6QGpgME15VerifyOpaqueJob11qt_metacallEN11QMetaObject4CallEiPPv@Base 1.7.0
 _ZN6QGpgME15VerifyOpaqueJob11qt_metacastEPKc@Base 1.7.0
 _ZN6QGpgME15VerifyOpaqueJob16staticMetaObjectE@Base 1.7.0
 _ZN6QGpgME15VerifyOpaqueJob6resultERKN5GpgME18VerificationResultERK10QByteArrayRK7QStringRKNS1_5ErrorE@Base 1.7.0
 _ZN6QGpgME15VerifyOpaqueJobC1EP7QObject@Base 1.7.0
 _ZN6QGpgME15VerifyOpaqueJobC2EP7QObject@Base 1.7.0
 _ZN6QGpgME15VerifyOpaqueJobD0Ev@Base 1.7.0
 _ZN6QGpgME15VerifyOpaqueJobD1Ev@Base 1.7.0
 _ZN6QGpgME15VerifyOpaqueJobD2Ev@Base 1.7.0
 _ZN6QGpgME16DecryptVerifyJob11qt_metacallEN11QMetaObject4CallEiPPv@Base 1.7.0
 _ZN6QGpgME16DecryptVerifyJob11qt_metacastEPKc@Base 1.7.0
 _ZN6QGpgME16DecryptVerifyJob16staticMetaObjectE@Base 1.7.0
 _ZN6QGpgME16DecryptVerifyJob6resultERKN5GpgME16DecryptionResultERKNS1_18VerificationResultERK10QByteArrayRK7QStringRKNS1_5ErrorE@Base 1.7.0
 _ZN6QGpgME16DecryptVerifyJobC1EP7QObject@Base 1.7.0
 _ZN6QGpgME16DecryptVerifyJobC2EP7QObject@Base 1.7.0
 _ZN6QGpgME16DecryptVerifyJobD0Ev@Base 1.7.0
 _ZN6QGpgME16DecryptVerifyJobD1Ev@Base 1.7.0
 _ZN6QGpgME16DecryptVerifyJobD2Ev@Base 1.7.0
 _ZN6QGpgME16KeyForMailboxJob11qt_metacallEN11QMetaObject4CallEiPPv@Base 1.7.0
 _ZN6QGpgME16KeyForMailboxJob11qt_metacastEPKc@Base 1.7.0
 _ZN6QGpgME16KeyForMailboxJob16staticMetaObjectE@Base 1.7.0
 _ZN6QGpgME16KeyForMailboxJob6resultERKN5GpgME13KeyListResultERKNS1_3KeyERKNS1_6UserIDERK7QStringRKNS1_5ErrorE@Base 1.7.0
 _ZN6QGpgME16KeyForMailboxJobC1EP7QObject@Base 1.7.0
 _ZN6QGpgME16KeyForMailboxJobC2EP7QObject@Base 1.7.0
 _ZN6QGpgME16KeyForMailboxJobD0Ev@Base 1.7.0
 _ZN6QGpgME16KeyForMailboxJobD1Ev@Base 1.7.0
 _ZN6QGpgME16KeyForMailboxJobD2Ev@Base 1.7.0
 _ZN6QGpgME16KeyGenerationJob11qt_metacallEN11QMetaObject4CallEiPPv@Base 1.7.0
 _ZN6QGpgME16KeyGenerationJob11qt_metacastEPKc@Base 1.7.0
 _ZN6QGpgME16KeyGenerationJob16staticMetaObjectE@Base 1.7.0
 _ZN6QGpgME16KeyGenerationJob6resultERKN5GpgME19KeyGenerationResultERK10QByteArrayRK7QStringRKNS1_5ErrorE@Base 1.7.0
 _ZN6QGpgME16KeyGenerationJobC1EP7QObject@Base 1.7.0
 _ZN6QGpgME16KeyGenerationJobC2EP7QObject@Base 1.7.0
 _ZN6QGpgME16KeyGenerationJobD0Ev@Base 1.7.0
 _ZN6QGpgME16KeyGenerationJobD1Ev@Base 1.7.0
 _ZN6QGpgME16KeyGenerationJobD2Ev@Base 1.7.0
 _ZN6QGpgME16QGpgMEDecryptJob10resultHookERKSt5tupleIJN5GpgME16DecryptionResultE10QByteArray7QStringNS2_5ErrorEEE@Base 1.7.0
 _ZN6QGpgME16QGpgMEDecryptJob11qt_metacallEN11QMetaObject4CallEiPPv@Base 1.7.0
 _ZN6QGpgME16QGpgMEDecryptJob11qt_metacastEPKc@Base 1.7.0
 _ZN6QGpgME16QGpgMEDecryptJob16staticMetaObjectE@Base 1.7.0
 _ZN6QGpgME16QGpgMEDecryptJob4execERK10QByteArrayRS1_@Base 1.7.0
 _ZN6QGpgME16QGpgMEDecryptJob5startERK10QByteArray@Base 1.7.0
 _ZN6QGpgME16QGpgMEDecryptJob5startERKSt10shared_ptrI9QIODeviceES5_@Base 1.7.0
 _ZN6QGpgME16QGpgMEDecryptJobC1EPN5GpgME7ContextE@Base 1.7.0
 _ZN6QGpgME16QGpgMEDecryptJobC2EPN5GpgME7ContextE@Base 1.7.0
 _ZN6QGpgME16QGpgMEDecryptJobD0Ev@Base 1.7.0
 _ZN6QGpgME16QGpgMEDecryptJobD1Ev@Base 1.7.0
 _ZN6QGpgME16QGpgMEDecryptJobD2Ev@Base 1.7.0
 _ZN6QGpgME16QGpgMEEncryptJob10resultHookERKSt5tupleIJN5GpgME16EncryptionResultE10QByteArray7QStringNS2_5ErrorEEE@Base 1.7.0
 _ZN6QGpgME16QGpgMEEncryptJob11qt_metacallEN11QMetaObject4CallEiPPv@Base 1.7.0
 _ZN6QGpgME16QGpgMEEncryptJob11qt_metacastEPKc@Base 1.7.0
 _ZN6QGpgME16QGpgMEEncryptJob16staticMetaObjectE@Base 1.7.0
 _ZN6QGpgME16QGpgMEEncryptJob24setOutputIsBase64EncodedEb@Base 1.7.0
 _ZN6QGpgME16QGpgMEEncryptJob4execERKSt6vectorIN5GpgME3KeyESaIS3_EERK10QByteArrayNS2_7Context15EncryptionFlagsERS8_@Base 1.7.0
 _ZN6QGpgME16QGpgMEEncryptJob4execERKSt6vectorIN5GpgME3KeyESaIS3_EERK10QByteArraybRS8_@Base 1.7.0
 _ZN6QGpgME16QGpgMEEncryptJob5startERKSt6vectorIN5GpgME3KeyESaIS3_EERK10QByteArrayb@Base 1.7.0
 _ZN6QGpgME16QGpgMEEncryptJob5startERKSt6vectorIN5GpgME3KeyESaIS3_EERKSt10shared_ptrI9QIODeviceESC_NS2_7Context15EncryptionFlagsE@Base 1.7.0
 _ZN6QGpgME16QGpgMEEncryptJob5startERKSt6vectorIN5GpgME3KeyESaIS3_EERKSt10shared_ptrI9QIODeviceESC_b@Base 1.7.0
 _ZN6QGpgME16QGpgMEEncryptJobC1EPN5GpgME7ContextE@Base 1.7.0
 _ZN6QGpgME16QGpgMEEncryptJobC2EPN5GpgME7ContextE@Base 1.7.0
 _ZN6QGpgME16QGpgMEEncryptJobD0Ev@Base 1.7.0
 _ZN6QGpgME16QGpgMEEncryptJobD1Ev@Base 1.7.0
 _ZN6QGpgME16QGpgMEEncryptJobD2Ev@Base 1.7.0
 _ZN6QGpgME16QGpgMEKeyListJob10resultHookERKSt5tupleIJN5GpgME13KeyListResultESt6vectorINS2_3KeyESaIS5_EE7QStringNS2_5ErrorEEE@Base 1.7.0
 _ZN6QGpgME16QGpgMEKeyListJob11qt_metacallEN11QMetaObject4CallEiPPv@Base 1.7.0
 _ZN6QGpgME16QGpgMEKeyListJob11qt_metacastEPKc@Base 1.7.0
 _ZN6QGpgME16QGpgMEKeyListJob16staticMetaObjectE@Base 1.7.0
 _ZN6QGpgME16QGpgMEKeyListJob4execERK11QStringListbRSt6vectorIN5GpgME3KeyESaIS6_EE@Base 1.7.0
 _ZN6QGpgME16QGpgMEKeyListJob5startERK11QStringListb@Base 1.7.0
 _ZN6QGpgME16QGpgMEKeyListJob7addModeEN5GpgME11KeyListModeE@Base 1.7.0
 _ZN6QGpgME16QGpgMEKeyListJobC1EPN5GpgME7ContextE@Base 1.7.0
 _ZN6QGpgME16QGpgMEKeyListJobC2EPN5GpgME7ContextE@Base 1.7.0
 _ZN6QGpgME16QGpgMEKeyListJobD0Ev@Base 1.7.0
 _ZN6QGpgME16QGpgMEKeyListJobD1Ev@Base 1.7.0
 _ZN6QGpgME16QGpgMEKeyListJobD2Ev@Base 1.7.0
 _ZN6QGpgME16QGpgMESignKeyJob11qt_metacallEN11QMetaObject4CallEiPPv@Base 1.7.0
 _ZN6QGpgME16QGpgMESignKeyJob11qt_metacastEPKc@Base 1.7.0
 _ZN6QGpgME16QGpgMESignKeyJob13setCheckLevelEj@Base 1.7.0
 _ZN6QGpgME16QGpgMESignKeyJob13setExportableEb@Base 1.7.0
 _ZN6QGpgME16QGpgMESignKeyJob13setSigningKeyERKN5GpgME3KeyE@Base 1.7.0
 _ZN6QGpgME16QGpgMESignKeyJob15setNonRevocableEb@Base 1.7.0
 _ZN6QGpgME16QGpgMESignKeyJob16setUserIDsToSignERKSt6vectorIjSaIjEE@Base 1.7.0
 _ZN6QGpgME16QGpgMESignKeyJob16staticMetaObjectE@Base 1.7.0
 _ZN6QGpgME16QGpgMESignKeyJob5startERKN5GpgME3KeyE@Base 1.7.0
 _ZN6QGpgME16QGpgMESignKeyJobC1EPN5GpgME7ContextE@Base 1.7.0
 _ZN6QGpgME16QGpgMESignKeyJobC2EPN5GpgME7ContextE@Base 1.7.0
 _ZN6QGpgME16QGpgMESignKeyJobD0Ev@Base 1.7.0
 _ZN6QGpgME16QGpgMESignKeyJobD1Ev@Base 1.7.0
 _ZN6QGpgME16QGpgMESignKeyJobD2Ev@Base 1.7.0
 _ZN6QGpgME17AbstractImportJob11qt_metacallEN11QMetaObject4CallEiPPv@Base 1.7.0
 _ZN6QGpgME17AbstractImportJob11qt_metacastEPKc@Base 1.7.0
 _ZN6QGpgME17AbstractImportJob16staticMetaObjectE@Base 1.7.0
 _ZN6QGpgME17AbstractImportJob6resultERKN5GpgME12ImportResultERK7QStringRKNS1_5ErrorE@Base 1.7.0
 _ZN6QGpgME17AbstractImportJobC1EP7QObject@Base 1.7.0
 _ZN6QGpgME17AbstractImportJobC2EP7QObject@Base 1.7.0
 _ZN6QGpgME17AbstractImportJobD0Ev@Base 1.7.0
 _ZN6QGpgME17AbstractImportJobD1Ev@Base 1.7.0
 _ZN6QGpgME17AbstractImportJobD2Ev@Base 1.7.0
 _ZN6QGpgME17QGpgMEDownloadJob11qt_metacallEN11QMetaObject4CallEiPPv@Base 1.7.0
 _ZN6QGpgME17QGpgMEDownloadJob11qt_metacastEPKc@Base 1.7.0
 _ZN6QGpgME17QGpgMEDownloadJob16staticMetaObjectE@Base 1.7.0
 _ZN6QGpgME17QGpgMEDownloadJob5startERK10QByteArrayRKSt10shared_ptrI9QIODeviceE@Base 1.7.0
 _ZN6QGpgME17QGpgMEDownloadJob5startERK11QStringList@Base 1.7.0
 _ZN6QGpgME17QGpgMEDownloadJobC1EPN5GpgME7ContextE@Base 1.7.0
 _ZN6QGpgME17QGpgMEDownloadJobC2EPN5GpgME7ContextE@Base 1.7.0
 _ZN6QGpgME17QGpgMEDownloadJobD0Ev@Base 1.7.0
 _ZN6QGpgME17QGpgMEDownloadJobD1Ev@Base 1.7.0
 _ZN6QGpgME17QGpgMEDownloadJobD2Ev@Base 1.7.0
 _ZN6QGpgME17VerifyDetachedJob11qt_metacallEN11QMetaObject4CallEiPPv@Base 1.7.0
 _ZN6QGpgME17VerifyDetachedJob11qt_metacastEPKc@Base 1.7.0
 _ZN6QGpgME17VerifyDetachedJob16staticMetaObjectE@Base 1.7.0
 _ZN6QGpgME17VerifyDetachedJob6resultERKN5GpgME18VerificationResultERK7QStringRKNS1_5ErrorE@Base 1.7.0
 _ZN6QGpgME17VerifyDetachedJobC1EP7QObject@Base 1.7.0
 _ZN6QGpgME17VerifyDetachedJobC2EP7QObject@Base 1.7.0
 _ZN6QGpgME17VerifyDetachedJobD0Ev@Base 1.7.0
 _ZN6QGpgME17VerifyDetachedJobD1Ev@Base 1.7.0
 _ZN6QGpgME17VerifyDetachedJobD2Ev@Base 1.7.0
 _ZN6QGpgME18QGpgMEAddUserIDJob11qt_metacallEN11QMetaObject4CallEiPPv@Base 1.7.0
 _ZN6QGpgME18QGpgMEAddUserIDJob11qt_metacastEPKc@Base 1.7.0
 _ZN6QGpgME18QGpgMEAddUserIDJob16staticMetaObjectE@Base 1.7.0
 _ZN6QGpgME18QGpgMEAddUserIDJob5startERKN5GpgME3KeyERK7QStringS7_S7_@Base 1.7.0
 _ZN6QGpgME18QGpgMEAddUserIDJobC1EPN5GpgME7ContextE@Base 1.7.0
 _ZN6QGpgME18QGpgMEAddUserIDJobC2EPN5GpgME7ContextE@Base 1.7.0
 _ZN6QGpgME18QGpgMEAddUserIDJobD0Ev@Base 1.7.0
 _ZN6QGpgME18QGpgMEAddUserIDJobD1Ev@Base 1.7.0
 _ZN6QGpgME18QGpgMEAddUserIDJobD2Ev@Base 1.7.0
 _ZN6QGpgME19ChangeOwnerTrustJob11qt_metacallEN11QMetaObject4CallEiPPv@Base 1.7.0
 _ZN6QGpgME19ChangeOwnerTrustJob11qt_metacastEPKc@Base 1.7.0
 _ZN6QGpgME19ChangeOwnerTrustJob16staticMetaObjectE@Base 1.7.0
 _ZN6QGpgME19ChangeOwnerTrustJob6resultERKN5GpgME5ErrorERK7QStringS4_@Base 1.7.0
 _ZN6QGpgME19ChangeOwnerTrustJobC1EP7QObject@Base 1.7.0
 _ZN6QGpgME19ChangeOwnerTrustJobC2EP7QObject@Base 1.7.0
 _ZN6QGpgME19ChangeOwnerTrustJobD0Ev@Base 1.7.0
 _ZN6QGpgME19ChangeOwnerTrustJobD1Ev@Base 1.7.0
 _ZN6QGpgME19ChangeOwnerTrustJobD2Ev@Base 1.7.0
 _ZN6QGpgME19QGpgMETofuPolicyJob11qt_metacallEN11QMetaObject4CallEiPPv@Base 1.7.0
 _ZN6QGpgME19QGpgMETofuPolicyJob11qt_metacastEPKc@Base 1.7.0
 _ZN6QGpgME19QGpgMETofuPolicyJob16staticMetaObjectE@Base 1.7.0
 _ZN6QGpgME19QGpgMETofuPolicyJob4execERKN5GpgME3KeyENS1_8TofuInfo6PolicyE@Base 1.7.0
 _ZN6QGpgME19QGpgMETofuPolicyJob5startERKN5GpgME3KeyENS1_8TofuInfo6PolicyE@Base 1.7.0
 _ZN6QGpgME19QGpgMETofuPolicyJobC1EPN5GpgME7ContextE@Base 1.7.0
 _ZN6QGpgME19QGpgMETofuPolicyJobC2EPN5GpgME7ContextE@Base 1.7.0
 _ZN6QGpgME19QGpgMETofuPolicyJobD0Ev@Base 1.7.0
 _ZN6QGpgME19QGpgMETofuPolicyJobD1Ev@Base 1.7.0
 _ZN6QGpgME19QGpgMETofuPolicyJobD2Ev@Base 1.7.0
 _ZN6QGpgME19QGpgMEWKSPublishJob10startCheckERK7QString@Base 1.7.0
 _ZN6QGpgME19QGpgMEWKSPublishJob11qt_metacallEN11QMetaObject4CallEiPPv@Base 1.7.0
 _ZN6QGpgME19QGpgMEWKSPublishJob11qt_metacastEPKc@Base 1.7.0
 _ZN6QGpgME19QGpgMEWKSPublishJob11startCreateEPKcRK7QString@Base 1.7.0
 _ZN6QGpgME19QGpgMEWKSPublishJob12startRecieveERK10QByteArray@Base 1.7.0
 _ZN6QGpgME19QGpgMEWKSPublishJob16staticMetaObjectE@Base 1.7.0
 _ZN6QGpgME19QGpgMEWKSPublishJobC1EPN5GpgME7ContextE@Base 1.7.0
 _ZN6QGpgME19QGpgMEWKSPublishJobC2EPN5GpgME7ContextE@Base 1.7.0
 _ZN6QGpgME19QGpgMEWKSPublishJobD0Ev@Base 1.7.0
 _ZN6QGpgME19QGpgMEWKSPublishJobD1Ev@Base 1.7.0
 _ZN6QGpgME19QGpgMEWKSPublishJobD2Ev@Base 1.7.0
 _ZN6QGpgME20QGpgMEListAllKeysJob10resultHookERKSt5tupleIJN5GpgME13KeyListResultESt6vectorINS2_3KeyESaIS5_EES7_7QStringNS2_5ErrorEEE@Base 1.7.0
 _ZN6QGpgME20QGpgMEListAllKeysJob11qt_metacallEN11QMetaObject4CallEiPPv@Base 1.7.0
 _ZN6QGpgME20QGpgMEListAllKeysJob11qt_metacastEPKc@Base 1.7.0
 _ZN6QGpgME20QGpgMEListAllKeysJob16staticMetaObjectE@Base 1.7.0
 _ZN6QGpgME20QGpgMEListAllKeysJob4execERSt6vectorIN5GpgME3KeyESaIS3_EES6_b@Base 1.7.0
 _ZN6QGpgME20QGpgMEListAllKeysJob5startEb@Base 1.7.0
 _ZN6QGpgME20QGpgMEListAllKeysJobC1EPN5GpgME7ContextE@Base 1.7.0
 _ZN6QGpgME20QGpgMEListAllKeysJobC2EPN5GpgME7ContextE@Base 1.7.0
 _ZN6QGpgME20QGpgMEListAllKeysJobD0Ev@Base 1.7.0
 _ZN6QGpgME20QGpgMEListAllKeysJobD1Ev@Base 1.7.0
 _ZN6QGpgME20QGpgMEListAllKeysJobD2Ev@Base 1.7.0
 _ZN6QGpgME20QGpgMERefreshKeysJob10slotCancelEv@Base 1.7.0
 _ZN6QGpgME20QGpgMERefreshKeysJob10slotStatusEP8QProcessRK7QStringRK11QStringList@Base 1.7.0
 _ZN6QGpgME20QGpgMERefreshKeysJob10slotStderrEv@Base 1.7.0
 _ZN6QGpgME20QGpgMERefreshKeysJob11qt_metacallEN11QMetaObject4CallEiPPv@Base 1.7.0
 _ZN6QGpgME20QGpgMERefreshKeysJob11qt_metacastEPKc@Base 1.7.0
 _ZN6QGpgME20QGpgMERefreshKeysJob13startAProcessEv@Base 1.7.0
 _ZN6QGpgME20QGpgMERefreshKeysJob16staticMetaObjectE@Base 1.7.0
 _ZN6QGpgME20QGpgMERefreshKeysJob17slotProcessExitedEiN8QProcess10ExitStatusE@Base 1.7.0
 _ZN6QGpgME20QGpgMERefreshKeysJob5startERK11QStringList@Base 1.7.0
 _ZN6QGpgME20QGpgMERefreshKeysJobC1Ev@Base 1.7.0
 _ZN6QGpgME20QGpgMERefreshKeysJobC2Ev@Base 1.7.0
 _ZN6QGpgME20QGpgMERefreshKeysJobD0Ev@Base 1.7.0
 _ZN6QGpgME20QGpgMERefreshKeysJobD1Ev@Base 1.7.0
 _ZN6QGpgME20QGpgMERefreshKeysJobD2Ev@Base 1.7.0
 _ZN6QGpgME20QGpgMESignEncryptJob10resultHookERKSt5tupleIJN5GpgME13SigningResultENS2_16EncryptionResultE10QByteArray7QStringNS2_5ErrorEEE@Base 1.7.0
 _ZN6QGpgME20QGpgMESignEncryptJob11qt_metacallEN11QMetaObject4CallEiPPv@Base 1.7.0
 _ZN6QGpgME20QGpgMESignEncryptJob11qt_metacastEPKc@Base 1.7.0
 _ZN6QGpgME20QGpgMESignEncryptJob16staticMetaObjectE@Base 1.7.0
 _ZN6QGpgME20QGpgMESignEncryptJob24setOutputIsBase64EncodedEb@Base 1.7.0
 _ZN6QGpgME20QGpgMESignEncryptJob4execERKSt6vectorIN5GpgME3KeyESaIS3_EES7_RK10QByteArrayNS2_7Context15EncryptionFlagsERS8_@Base 1.7.0
 _ZN6QGpgME20QGpgMESignEncryptJob4execERKSt6vectorIN5GpgME3KeyESaIS3_EES7_RK10QByteArraybRS8_@Base 1.7.0
 _ZN6QGpgME20QGpgMESignEncryptJob5startERKSt6vectorIN5GpgME3KeyESaIS3_EES7_RK10QByteArrayb@Base 1.7.0
 _ZN6QGpgME20QGpgMESignEncryptJob5startERKSt6vectorIN5GpgME3KeyESaIS3_EES7_RKSt10shared_ptrI9QIODeviceESC_NS2_7Context15EncryptionFlagsE@Base 1.7.0
 _ZN6QGpgME20QGpgMESignEncryptJob5startERKSt6vectorIN5GpgME3KeyESaIS3_EES7_RKSt10shared_ptrI9QIODeviceESC_b@Base 1.7.0
 _ZN6QGpgME20QGpgMESignEncryptJobC1EPN5GpgME7ContextE@Base 1.7.0
 _ZN6QGpgME20QGpgMESignEncryptJobC2EPN5GpgME7ContextE@Base 1.7.0
 _ZN6QGpgME20QGpgMESignEncryptJobD0Ev@Base 1.7.0
 _ZN6QGpgME20QGpgMESignEncryptJobD1Ev@Base 1.7.0
 _ZN6QGpgME20QGpgMESignEncryptJobD2Ev@Base 1.7.0
 _ZN6QGpgME21QGpgMEChangeExpiryJob11qt_metacallEN11QMetaObject4CallEiPPv@Base 1.7.0
 _ZN6QGpgME21QGpgMEChangeExpiryJob11qt_metacastEPKc@Base 1.7.0
 _ZN6QGpgME21QGpgMEChangeExpiryJob16staticMetaObjectE@Base 1.7.0
 _ZN6QGpgME21QGpgMEChangeExpiryJob5startERKN5GpgME3KeyERK9QDateTime@Base 1.7.0
 _ZN6QGpgME21QGpgMEChangeExpiryJobC1EPN5GpgME7ContextE@Base 1.7.0
 _ZN6QGpgME21QGpgMEChangeExpiryJobC2EPN5GpgME7ContextE@Base 1.7.0
 _ZN6QGpgME21QGpgMEChangeExpiryJobD0Ev@Base 1.7.0
 _ZN6QGpgME21QGpgMEChangeExpiryJobD1Ev@Base 1.7.0
 _ZN6QGpgME21QGpgMEChangeExpiryJobD2Ev@Base 1.7.0
 _ZN6QGpgME21QGpgMEChangePasswdJob11qt_metacallEN11QMetaObject4CallEiPPv@Base 1.7.0
 _ZN6QGpgME21QGpgMEChangePasswdJob11qt_metacastEPKc@Base 1.7.0
 _ZN6QGpgME21QGpgMEChangePasswdJob16staticMetaObjectE@Base 1.7.0
 _ZN6QGpgME21QGpgMEChangePasswdJob5startERKN5GpgME3KeyE@Base 1.7.0
 _ZN6QGpgME21QGpgMEChangePasswdJobC1EPN5GpgME7ContextE@Base 1.7.0
 _ZN6QGpgME21QGpgMEChangePasswdJobC2EPN5GpgME7ContextE@Base 1.7.0
 _ZN6QGpgME21QGpgMEChangePasswdJobD0Ev@Base 1.7.0
 _ZN6QGpgME21QGpgMEChangePasswdJobD1Ev@Base 1.7.0
 _ZN6QGpgME21QGpgMEChangePasswdJobD2Ev@Base 1.7.0
 _ZN6QGpgME21QGpgMEVerifyOpaqueJob10resultHookERKSt5tupleIJN5GpgME18VerificationResultE10QByteArray7QStringNS2_5ErrorEEE@Base 1.7.0
 _ZN6QGpgME21QGpgMEVerifyOpaqueJob11qt_metacallEN11QMetaObject4CallEiPPv@Base 1.7.0
 _ZN6QGpgME21QGpgMEVerifyOpaqueJob11qt_metacastEPKc@Base 1.7.0
 _ZN6QGpgME21QGpgMEVerifyOpaqueJob16staticMetaObjectE@Base 1.7.0
 _ZN6QGpgME21QGpgMEVerifyOpaqueJob4execERK10QByteArrayRS1_@Base 1.7.0
 _ZN6QGpgME21QGpgMEVerifyOpaqueJob5startERK10QByteArray@Base 1.7.0
 _ZN6QGpgME21QGpgMEVerifyOpaqueJob5startERKSt10shared_ptrI9QIODeviceES5_@Base 1.7.0
 _ZN6QGpgME21QGpgMEVerifyOpaqueJobC1EPN5GpgME7ContextE@Base 1.7.0
 _ZN6QGpgME21QGpgMEVerifyOpaqueJobC2EPN5GpgME7ContextE@Base 1.7.0
 _ZN6QGpgME21QGpgMEVerifyOpaqueJobD0Ev@Base 1.7.0
 _ZN6QGpgME21QGpgMEVerifyOpaqueJobD1Ev@Base 1.7.0
 _ZN6QGpgME21QGpgMEVerifyOpaqueJobD2Ev@Base 1.7.0
 _ZN6QGpgME21QIODeviceDataProvider4readEPvm@Base 1.7.0
 _ZN6QGpgME21QIODeviceDataProvider4seekEli@Base 1.7.0
 _ZN6QGpgME21QIODeviceDataProvider5writeEPKvm@Base 1.7.0
 _ZN6QGpgME21QIODeviceDataProvider7releaseEv@Base 1.7.0
 _ZN6QGpgME21QIODeviceDataProviderC1ERKSt10shared_ptrI9QIODeviceE@Base 1.7.0
 _ZN6QGpgME21QIODeviceDataProviderC2ERKSt10shared_ptrI9QIODeviceE@Base 1.7.0
 _ZN6QGpgME21QIODeviceDataProviderD0Ev@Base 1.7.0
 _ZN6QGpgME21QIODeviceDataProviderD1Ev@Base 1.7.0
 _ZN6QGpgME21QIODeviceDataProviderD2Ev@Base 1.7.0
 _ZN6QGpgME22ImportFromKeyserverJob11qt_metacallEN11QMetaObject4CallEiPPv@Base 1.7.0
 _ZN6QGpgME22ImportFromKeyserverJob11qt_metacastEPKc@Base 1.7.0
 _ZN6QGpgME22ImportFromKeyserverJob16staticMetaObjectE@Base 1.7.0
 _ZN6QGpgME22ImportFromKeyserverJobC1EP7QObject@Base 1.7.0
 _ZN6QGpgME22ImportFromKeyserverJobC2EP7QObject@Base 1.7.0
 _ZN6QGpgME22ImportFromKeyserverJobD0Ev@Base 1.7.0
 _ZN6QGpgME22ImportFromKeyserverJobD1Ev@Base 1.7.0
 _ZN6QGpgME22ImportFromKeyserverJobD2Ev@Base 1.7.0
 _ZN6QGpgME22QByteArrayDataProvider4readEPvm@Base 1.7.0
 _ZN6QGpgME22QByteArrayDataProvider4seekEli@Base 1.7.0
 _ZN6QGpgME22QByteArrayDataProvider5writeEPKvm@Base 1.7.0
 _ZN6QGpgME22QByteArrayDataProvider7releaseEv@Base 1.7.0
 _ZN6QGpgME22QByteArrayDataProviderC1ERK10QByteArray@Base 1.7.0
 _ZN6QGpgME22QByteArrayDataProviderC1Ev@Base 1.7.0
 _ZN6QGpgME22QByteArrayDataProviderC2ERK10QByteArray@Base 1.7.0
 _ZN6QGpgME22QByteArrayDataProviderC2Ev@Base 1.7.0
 _ZN6QGpgME22QByteArrayDataProviderD0Ev@Base 1.7.0
 _ZN6QGpgME22QByteArrayDataProviderD1Ev@Base 1.7.0
 _ZN6QGpgME22QByteArrayDataProviderD2Ev@Base 1.7.0
 _ZN6QGpgME22QGpgMEDecryptVerifyJob10resultHookERKSt5tupleIJN5GpgME16DecryptionResultENS2_18VerificationResultE10QByteArray7QStringNS2_5ErrorEEE@Base 1.7.0
 _ZN6QGpgME22QGpgMEDecryptVerifyJob11qt_metacallEN11QMetaObject4CallEiPPv@Base 1.7.0
 _ZN6QGpgME22QGpgMEDecryptVerifyJob11qt_metacastEPKc@Base 1.7.0
 _ZN6QGpgME22QGpgMEDecryptVerifyJob16staticMetaObjectE@Base 1.7.0
 _ZN6QGpgME22QGpgMEDecryptVerifyJob4execERK10QByteArrayRS1_@Base 1.7.0
 _ZN6QGpgME22QGpgMEDecryptVerifyJob5startERK10QByteArray@Base 1.7.0
 _ZN6QGpgME22QGpgMEDecryptVerifyJob5startERKSt10shared_ptrI9QIODeviceES5_@Base 1.7.0
 _ZN6QGpgME22QGpgMEDecryptVerifyJobC1EPN5GpgME7ContextE@Base 1.7.0
 _ZN6QGpgME22QGpgMEDecryptVerifyJobC2EPN5GpgME7ContextE@Base 1.7.0
 _ZN6QGpgME22QGpgMEDecryptVerifyJobD0Ev@Base 1.7.0
 _ZN6QGpgME22QGpgMEDecryptVerifyJobD1Ev@Base 1.7.0
 _ZN6QGpgME22QGpgMEDecryptVerifyJobD2Ev@Base 1.7.0
 _ZN6QGpgME22QGpgMEKeyForMailboxJob11qt_metacallEN11QMetaObject4CallEiPPv@Base 1.7.0
 _ZN6QGpgME22QGpgMEKeyForMailboxJob11qt_metacastEPKc@Base 1.7.0
 _ZN6QGpgME22QGpgMEKeyForMailboxJob16staticMetaObjectE@Base 1.7.0
 _ZN6QGpgME22QGpgMEKeyForMailboxJob4execERK7QStringbRN5GpgME3KeyERNS4_6UserIDE@Base 1.7.0
 _ZN6QGpgME22QGpgMEKeyForMailboxJob5startERK7QStringb@Base 1.7.0
 _ZN6QGpgME22QGpgMEKeyForMailboxJobC1EPN5GpgME7ContextE@Base 1.7.0
 _ZN6QGpgME22QGpgMEKeyForMailboxJobC2EPN5GpgME7ContextE@Base 1.7.0
 _ZN6QGpgME22QGpgMEKeyForMailboxJobD0Ev@Base 1.7.0
 _ZN6QGpgME22QGpgMEKeyForMailboxJobD1Ev@Base 1.7.0
 _ZN6QGpgME22QGpgMEKeyForMailboxJobD2Ev@Base 1.7.0
 _ZN6QGpgME22QGpgMEKeyGenerationJob11qt_metacallEN11QMetaObject4CallEiPPv@Base 1.7.0
 _ZN6QGpgME22QGpgMEKeyGenerationJob11qt_metacastEPKc@Base 1.7.0
 _ZN6QGpgME22QGpgMEKeyGenerationJob16staticMetaObjectE@Base 1.7.0
 _ZN6QGpgME22QGpgMEKeyGenerationJob5startERK7QString@Base 1.7.0
 _ZN6QGpgME22QGpgMEKeyGenerationJobC1EPN5GpgME7ContextE@Base 1.7.0
 _ZN6QGpgME22QGpgMEKeyGenerationJobC2EPN5GpgME7ContextE@Base 1.7.0
 _ZN6QGpgME22QGpgMEKeyGenerationJobD0Ev@Base 1.7.0
 _ZN6QGpgME22QGpgMEKeyGenerationJobD1Ev@Base 1.7.0
 _ZN6QGpgME22QGpgMEKeyGenerationJobD2Ev@Base 1.7.0
 _ZN6QGpgME23DefaultKeyGenerationJob10slotCancelEv@Base 1.7.0
 _ZN6QGpgME23DefaultKeyGenerationJob11eventFilterEP7QObjectP6QEvent@Base 1.7.0
 _ZN6QGpgME23DefaultKeyGenerationJob11qt_metacallEN11QMetaObject4CallEiPPv@Base 1.7.0
 _ZN6QGpgME23DefaultKeyGenerationJob11qt_metacastEPKc@Base 1.7.0
 _ZN6QGpgME23DefaultKeyGenerationJob16staticMetaObjectE@Base 1.7.0
 _ZN6QGpgME23DefaultKeyGenerationJob5startERK7QStringS3_@Base 1.7.0
 _ZN6QGpgME23DefaultKeyGenerationJob6resultERKN5GpgME19KeyGenerationResultERK10QByteArrayRK7QStringRKNS1_5ErrorE@Base 1.7.0
 _ZN6QGpgME23DefaultKeyGenerationJobC1EP7QObject@Base 1.7.0
 _ZN6QGpgME23DefaultKeyGenerationJobC2EP7QObject@Base 1.7.0
 _ZN6QGpgME23DefaultKeyGenerationJobD0Ev@Base 1.7.0
 _ZN6QGpgME23DefaultKeyGenerationJobD1Ev@Base 1.7.0
 _ZN6QGpgME23DefaultKeyGenerationJobD2Ev@Base 1.7.0
 _ZN6QGpgME23QGpgMEVerifyDetachedJob10resultHookERKSt5tupleIJN5GpgME18VerificationResultE7QStringNS2_5ErrorEEE@Base 1.7.0
 _ZN6QGpgME23QGpgMEVerifyDetachedJob11qt_metacallEN11QMetaObject4CallEiPPv@Base 1.7.0
 _ZN6QGpgME23QGpgMEVerifyDetachedJob11qt_metacastEPKc@Base 1.7.0
 _ZN6QGpgME23QGpgMEVerifyDetachedJob16staticMetaObjectE@Base 1.7.0
 _ZN6QGpgME23QGpgMEVerifyDetachedJob4execERK10QByteArrayS3_@Base 1.7.0
 _ZN6QGpgME23QGpgMEVerifyDetachedJob5startERK10QByteArrayS3_@Base 1.7.0
 _ZN6QGpgME23QGpgMEVerifyDetachedJob5startERKSt10shared_ptrI9QIODeviceES5_@Base 1.7.0
 _ZN6QGpgME23QGpgMEVerifyDetachedJobC1EPN5GpgME7ContextE@Base 1.7.0
 _ZN6QGpgME23QGpgMEVerifyDetachedJobC2EPN5GpgME7ContextE@Base 1.7.0
 _ZN6QGpgME23QGpgMEVerifyDetachedJobD0Ev@Base 1.7.0
 _ZN6QGpgME23QGpgMEVerifyDetachedJobD1Ev@Base 1.7.0
 _ZN6QGpgME23QGpgMEVerifyDetachedJobD2Ev@Base 1.7.0
 _ZN6QGpgME24QGpgMESecretKeyExportJob10slotCancelEv@Base 1.7.0
 _ZN6QGpgME24QGpgMESecretKeyExportJob10slotStderrEv@Base 1.7.0
 _ZN6QGpgME24QGpgMESecretKeyExportJob10slotStdoutEv@Base 1.7.0
 _ZN6QGpgME24QGpgMESecretKeyExportJob11qt_metacallEN11QMetaObject4CallEiPPv@Base 1.7.0
 _ZN6QGpgME24QGpgMESecretKeyExportJob11qt_metacastEPKc@Base 1.7.0
 _ZN6QGpgME24QGpgMESecretKeyExportJob16staticMetaObjectE@Base 1.7.0
 _ZN6QGpgME24QGpgMESecretKeyExportJob17slotProcessExitedEiN8QProcess10ExitStatusE@Base 1.7.0
 _ZN6QGpgME24QGpgMESecretKeyExportJob5startERK11QStringList@Base 1.7.0
 _ZN6QGpgME24QGpgMESecretKeyExportJobC1EbRK7QString@Base 1.7.0
 _ZN6QGpgME24QGpgMESecretKeyExportJobC2EbRK7QString@Base 1.7.0
 _ZN6QGpgME24QGpgMESecretKeyExportJobD0Ev@Base 1.7.0
 _ZN6QGpgME24QGpgMESecretKeyExportJobD1Ev@Base 1.7.0
 _ZN6QGpgME24QGpgMESecretKeyExportJobD2Ev@Base 1.7.0
 _ZN6QGpgME25QGpgMEChangeOwnerTrustJob11qt_metacallEN11QMetaObject4CallEiPPv@Base 1.7.0
 _ZN6QGpgME25QGpgMEChangeOwnerTrustJob11qt_metacastEPKc@Base 1.7.0
 _ZN6QGpgME25QGpgMEChangeOwnerTrustJob16staticMetaObjectE@Base 1.7.0
 _ZN6QGpgME25QGpgMEChangeOwnerTrustJob5startERKN5GpgME3KeyENS2_10OwnerTrustE@Base 1.7.0
 _ZN6QGpgME25QGpgMEChangeOwnerTrustJobC1EPN5GpgME7ContextE@Base 1.7.0
 _ZN6QGpgME25QGpgMEChangeOwnerTrustJobC2EPN5GpgME7ContextE@Base 1.7.0
 _ZN6QGpgME25QGpgMEChangeOwnerTrustJobD0Ev@Base 1.7.0
 _ZN6QGpgME25QGpgMEChangeOwnerTrustJobD1Ev@Base 1.7.0
 _ZN6QGpgME25QGpgMEChangeOwnerTrustJobD2Ev@Base 1.7.0
 _ZN6QGpgME28QGpgMEImportFromKeyserverJob10resultHookERKSt5tupleIJN5GpgME12ImportResultE7QStringNS2_5ErrorEEE@Base 1.7.0
 _ZN6QGpgME28QGpgMEImportFromKeyserverJob11qt_metacallEN11QMetaObject4CallEiPPv@Base 1.7.0
 _ZN6QGpgME28QGpgMEImportFromKeyserverJob11qt_metacastEPKc@Base 1.7.0
 _ZN6QGpgME28QGpgMEImportFromKeyserverJob16staticMetaObjectE@Base 1.7.0
 _ZN6QGpgME28QGpgMEImportFromKeyserverJob4execERKSt6vectorIN5GpgME3KeyESaIS3_EE@Base 1.7.0
 _ZN6QGpgME28QGpgMEImportFromKeyserverJob5startERKSt6vectorIN5GpgME3KeyESaIS3_EE@Base 1.7.0
 _ZN6QGpgME28QGpgMEImportFromKeyserverJobC1EPN5GpgME7ContextE@Base 1.7.0
 _ZN6QGpgME28QGpgMEImportFromKeyserverJobC2EPN5GpgME7ContextE@Base 1.7.0
 _ZN6QGpgME28QGpgMEImportFromKeyserverJobD0Ev@Base 1.7.0
 _ZN6QGpgME28QGpgMEImportFromKeyserverJobD1Ev@Base 1.7.0
 _ZN6QGpgME28QGpgMEImportFromKeyserverJobD2Ev@Base 1.7.0
 _ZN6QGpgME3Job11qt_metacallEN11QMetaObject4CallEiPPv@Base 1.7.0
 _ZN6QGpgME3Job11qt_metacastEPKc@Base 1.7.0
 _ZN6QGpgME3Job16staticMetaObjectE@Base 1.7.0
 _ZN6QGpgME3Job4doneEv@Base 1.7.0
 _ZN6QGpgME3Job8progressERK7QStringii@Base 1.7.0
 _ZN6QGpgME3JobC1EP7QObject@Base 1.7.0
 _ZN6QGpgME3JobC2EP7QObject@Base 1.7.0
 _ZN6QGpgME3JobD0Ev@Base 1.7.0
 _ZN6QGpgME3JobD1Ev@Base 1.7.0
 _ZN6QGpgME3JobD2Ev@Base 1.7.0
 _ZN6QGpgME5smimeEv@Base 1.7.0
 _ZN6QGpgME7SignJob11qt_metacallEN11QMetaObject4CallEiPPv@Base 1.7.0
 _ZN6QGpgME7SignJob11qt_metacastEPKc@Base 1.7.0
 _ZN6QGpgME7SignJob16staticMetaObjectE@Base 1.7.0
 _ZN6QGpgME7SignJob6resultERKN5GpgME13SigningResultERK10QByteArrayRK7QStringRKNS1_5ErrorE@Base 1.7.0
 _ZN6QGpgME7SignJobC1EP7QObject@Base 1.7.0
 _ZN6QGpgME7SignJobC2EP7QObject@Base 1.7.0
 _ZN6QGpgME7SignJobD0Ev@Base 1.7.0
 _ZN6QGpgME7SignJobD1Ev@Base 1.7.0
 _ZN6QGpgME7SignJobD2Ev@Base 1.7.0
 _ZN6QGpgME7_detail16PatternConverterC1ERK10QByteArray@Base 1.7.0
 _ZN6QGpgME7_detail16PatternConverterC1ERK11QStringList@Base 1.7.0
 _ZN6QGpgME7_detail16PatternConverterC1ERK5QListI10QByteArrayE@Base 1.7.0
 _ZN6QGpgME7_detail16PatternConverterC1ERK7QString@Base 1.7.0
 _ZN6QGpgME7_detail16PatternConverterC2ERK10QByteArray@Base 1.7.0
 _ZN6QGpgME7_detail16PatternConverterC2ERK11QStringList@Base 1.7.0
 _ZN6QGpgME7_detail16PatternConverterC2ERK5QListI10QByteArrayE@Base 1.7.0
 _ZN6QGpgME7_detail16PatternConverterC2ERK7QString@Base 1.7.0
 _ZN6QGpgME7_detail16PatternConverterD1Ev@Base 1.7.0
 _ZN6QGpgME7_detail16PatternConverterD2Ev@Base 1.7.0
 (optional=templinst)_ZN6QGpgME7_detail16ThreadedJobMixinINS_10DecryptJobESt5tupleIJN5GpgME16DecryptionResultE10QByteArray7QStringNS4_5ErrorEEEE10resultHookERKS9_@Base 1.7.0
 (optional=templinst)_ZN6QGpgME7_detail16ThreadedJobMixinINS_10DecryptJobESt5tupleIJN5GpgME16DecryptionResultE10QByteArray7QStringNS4_5ErrorEEEE10slotCancelEv@Base 1.7.0
 (optional=templinst)_ZN6QGpgME7_detail16ThreadedJobMixinINS_10DecryptJobESt5tupleIJN5GpgME16DecryptionResultE10QByteArray7QStringNS4_5ErrorEEEE12showProgressEPKciii@Base 1.7.0
 (optional=templinst)_ZN6QGpgME7_detail16ThreadedJobMixinINS_10DecryptJobESt5tupleIJN5GpgME16DecryptionResultE10QByteArray7QStringNS4_5ErrorEEEED0Ev@Base 1.7.0
 (optional=templinst)_ZN6QGpgME7_detail16ThreadedJobMixinINS_10DecryptJobESt5tupleIJN5GpgME16DecryptionResultE10QByteArray7QStringNS4_5ErrorEEEED1Ev@Base 1.7.0
 (optional=templinst)_ZN6QGpgME7_detail16ThreadedJobMixinINS_10DecryptJobESt5tupleIJN5GpgME16DecryptionResultE10QByteArray7QStringNS4_5ErrorEEEED2Ev@Base 1.7.0
 (optional=templinst)_ZN6QGpgME7_detail16ThreadedJobMixinINS_10EncryptJobESt5tupleIJN5GpgME16EncryptionResultE10QByteArray7QStringNS4_5ErrorEEEE10resultHookERKS9_@Base 1.7.0
 (optional=templinst)_ZN6QGpgME7_detail16ThreadedJobMixinINS_10EncryptJobESt5tupleIJN5GpgME16EncryptionResultE10QByteArray7QStringNS4_5ErrorEEEE10slotCancelEv@Base 1.7.0
 (optional=templinst)_ZN6QGpgME7_detail16ThreadedJobMixinINS_10EncryptJobESt5tupleIJN5GpgME16EncryptionResultE10QByteArray7QStringNS4_5ErrorEEEE12showProgressEPKciii@Base 1.7.0
 (optional=templinst)_ZN6QGpgME7_detail16ThreadedJobMixinINS_10EncryptJobESt5tupleIJN5GpgME16EncryptionResultE10QByteArray7QStringNS4_5ErrorEEEED0Ev@Base 1.7.0
 (optional=templinst)_ZN6QGpgME7_detail16ThreadedJobMixinINS_10EncryptJobESt5tupleIJN5GpgME16EncryptionResultE10QByteArray7QStringNS4_5ErrorEEEED1Ev@Base 1.7.0
 (optional=templinst)_ZN6QGpgME7_detail16ThreadedJobMixinINS_10EncryptJobESt5tupleIJN5GpgME16EncryptionResultE10QByteArray7QStringNS4_5ErrorEEEED2Ev@Base 1.7.0
 (optional=templinst)_ZN6QGpgME7_detail16ThreadedJobMixinINS_10KeyListJobESt5tupleIJN5GpgME13KeyListResultESt6vectorINS4_3KeyESaIS7_EE7QStringNS4_5ErrorEEEE10resultHookERKSC_@Base 1.7.0
 (optional=templinst)_ZN6QGpgME7_detail16ThreadedJobMixinINS_10KeyListJobESt5tupleIJN5GpgME13KeyListResultESt6vectorINS4_3KeyESaIS7_EE7QStringNS4_5ErrorEEEE10slotCancelEv@Base 1.7.0
 (optional=templinst)_ZN6QGpgME7_detail16ThreadedJobMixinINS_10KeyListJobESt5tupleIJN5GpgME13KeyListResultESt6vectorINS4_3KeyESaIS7_EE7QStringNS4_5ErrorEEEE12showProgressEPKciii@Base 1.7.0
 (optional=templinst)_ZN6QGpgME7_detail16ThreadedJobMixinINS_10KeyListJobESt5tupleIJN5GpgME13KeyListResultESt6vectorINS4_3KeyESaIS7_EE7QStringNS4_5ErrorEEEED0Ev@Base 1.7.0
 (optional=templinst)_ZN6QGpgME7_detail16ThreadedJobMixinINS_10KeyListJobESt5tupleIJN5GpgME13KeyListResultESt6vectorINS4_3KeyESaIS7_EE7QStringNS4_5ErrorEEEED1Ev@Base 1.7.0
 (optional=templinst)_ZN6QGpgME7_detail16ThreadedJobMixinINS_10KeyListJobESt5tupleIJN5GpgME13KeyListResultESt6vectorINS4_3KeyESaIS7_EE7QStringNS4_5ErrorEEEED2Ev@Base 1.7.0
 (optional=templinst)_ZN6QGpgME7_detail16ThreadedJobMixinINS_10SignKeyJobESt5tupleIJN5GpgME5ErrorE7QStringS5_EEE10resultHookERKS7_@Base 1.7.0
 (optional=templinst)_ZN6QGpgME7_detail16ThreadedJobMixinINS_10SignKeyJobESt5tupleIJN5GpgME5ErrorE7QStringS5_EEE10slotCancelEv@Base 1.7.0
 (optional=templinst)_ZN6QGpgME7_detail16ThreadedJobMixinINS_10SignKeyJobESt5tupleIJN5GpgME5ErrorE7QStringS5_EEE12showProgressEPKciii@Base 1.7.0
 (optional=templinst)_ZN6QGpgME7_detail16ThreadedJobMixinINS_10SignKeyJobESt5tupleIJN5GpgME5ErrorE7QStringS5_EEED0Ev@Base 1.7.0
 (optional=templinst)_ZN6QGpgME7_detail16ThreadedJobMixinINS_10SignKeyJobESt5tupleIJN5GpgME5ErrorE7QStringS5_EEED1Ev@Base 1.7.0
 (optional=templinst)_ZN6QGpgME7_detail16ThreadedJobMixinINS_10SignKeyJobESt5tupleIJN5GpgME5ErrorE7QStringS5_EEED2Ev@Base 1.7.0
 (optional=templinst)_ZN6QGpgME7_detail16ThreadedJobMixinINS_11DownloadJobESt5tupleIJN5GpgME5ErrorE10QByteArray7QStringS5_EEE10resultHookERKS8_@Base 1.7.0
 (optional=templinst)_ZN6QGpgME7_detail16ThreadedJobMixinINS_11DownloadJobESt5tupleIJN5GpgME5ErrorE10QByteArray7QStringS5_EEE10slotCancelEv@Base 1.7.0
 (optional=templinst)_ZN6QGpgME7_detail16ThreadedJobMixinINS_11DownloadJobESt5tupleIJN5GpgME5ErrorE10QByteArray7QStringS5_EEE12showProgressEPKciii@Base 1.7.0
 (optional=templinst)_ZN6QGpgME7_detail16ThreadedJobMixinINS_11DownloadJobESt5tupleIJN5GpgME5ErrorE10QByteArray7QStringS5_EEED0Ev@Base 1.7.0
 (optional=templinst)_ZN6QGpgME7_detail16ThreadedJobMixinINS_11DownloadJobESt5tupleIJN5GpgME5ErrorE10QByteArray7QStringS5_EEED1Ev@Base 1.7.0
 (optional=templinst)_ZN6QGpgME7_detail16ThreadedJobMixinINS_11DownloadJobESt5tupleIJN5GpgME5ErrorE10QByteArray7QStringS5_EEED2Ev@Base 1.7.0
 (optional=templinst)_ZN6QGpgME7_detail16ThreadedJobMixinINS_12AddUserIDJobESt5tupleIJN5GpgME5ErrorE7QStringS5_EEE10resultHookERKS7_@Base 1.7.0
 (optional=templinst)_ZN6QGpgME7_detail16ThreadedJobMixinINS_12AddUserIDJobESt5tupleIJN5GpgME5ErrorE7QStringS5_EEE10slotCancelEv@Base 1.7.0
 (optional=templinst)_ZN6QGpgME7_detail16ThreadedJobMixinINS_12AddUserIDJobESt5tupleIJN5GpgME5ErrorE7QStringS5_EEE12showProgressEPKciii@Base 1.7.0
 (optional=templinst)_ZN6QGpgME7_detail16ThreadedJobMixinINS_12AddUserIDJobESt5tupleIJN5GpgME5ErrorE7QStringS5_EEED0Ev@Base 1.7.0
 (optional=templinst)_ZN6QGpgME7_detail16ThreadedJobMixinINS_12AddUserIDJobESt5tupleIJN5GpgME5ErrorE7QStringS5_EEED1Ev@Base 1.7.0
 (optional=templinst)_ZN6QGpgME7_detail16ThreadedJobMixinINS_12AddUserIDJobESt5tupleIJN5GpgME5ErrorE7QStringS5_EEED2Ev@Base 1.7.0
 (optional=templinst)_ZN6QGpgME7_detail16ThreadedJobMixinINS_13TofuPolicyJobESt5tupleIJN5GpgME5ErrorE7QStringS5_EEE10resultHookERKS7_@Base 1.7.0
 (optional=templinst)_ZN6QGpgME7_detail16ThreadedJobMixinINS_13TofuPolicyJobESt5tupleIJN5GpgME5ErrorE7QStringS5_EEE10slotCancelEv@Base 1.7.0
 (optional=templinst)_ZN6QGpgME7_detail16ThreadedJobMixinINS_13TofuPolicyJobESt5tupleIJN5GpgME5ErrorE7QStringS5_EEE12showProgressEPKciii@Base 1.7.0
 (optional=templinst)_ZN6QGpgME7_detail16ThreadedJobMixinINS_13TofuPolicyJobESt5tupleIJN5GpgME5ErrorE7QStringS5_EEED0Ev@Base 1.7.0
 (optional=templinst)_ZN6QGpgME7_detail16ThreadedJobMixinINS_13TofuPolicyJobESt5tupleIJN5GpgME5ErrorE7QStringS5_EEED1Ev@Base 1.7.0
 (optional=templinst)_ZN6QGpgME7_detail16ThreadedJobMixinINS_13TofuPolicyJobESt5tupleIJN5GpgME5ErrorE7QStringS5_EEED2Ev@Base 1.7.0
 (optional=templinst)_ZN6QGpgME7_detail16ThreadedJobMixinINS_13WKSPublishJobESt5tupleIJN5GpgME5ErrorE10QByteArrayS6_7QStringS5_EEE10resultHookERKS8_@Base 1.7.0
 (optional=templinst)_ZN6QGpgME7_detail16ThreadedJobMixinINS_13WKSPublishJobESt5tupleIJN5GpgME5ErrorE10QByteArrayS6_7QStringS5_EEE10slotCancelEv@Base 1.7.0
 (optional=templinst)_ZN6QGpgME7_detail16ThreadedJobMixinINS_13WKSPublishJobESt5tupleIJN5GpgME5ErrorE10QByteArrayS6_7QStringS5_EEE12showProgressEPKciii@Base 1.7.0
 (optional=templinst)_ZN6QGpgME7_detail16ThreadedJobMixinINS_13WKSPublishJobESt5tupleIJN5GpgME5ErrorE10QByteArrayS6_7QStringS5_EEED0Ev@Base 1.7.0
 (optional=templinst)_ZN6QGpgME7_detail16ThreadedJobMixinINS_13WKSPublishJobESt5tupleIJN5GpgME5ErrorE10QByteArrayS6_7QStringS5_EEED1Ev@Base 1.7.0
 (optional=templinst)_ZN6QGpgME7_detail16ThreadedJobMixinINS_13WKSPublishJobESt5tupleIJN5GpgME5ErrorE10QByteArrayS6_7QStringS5_EEED2Ev@Base 1.7.0
 (optional=templinst)_ZN6QGpgME7_detail16ThreadedJobMixinINS_14ListAllKeysJobESt5tupleIJN5GpgME13KeyListResultESt6vectorINS4_3KeyESaIS7_EES9_7QStringNS4_5ErrorEEEE10resultHookERKSC_@Base 1.7.0
 (optional=templinst)_ZN6QGpgME7_detail16ThreadedJobMixinINS_14ListAllKeysJobESt5tupleIJN5GpgME13KeyListResultESt6vectorINS4_3KeyESaIS7_EES9_7QStringNS4_5ErrorEEEE10slotCancelEv@Base 1.7.0
 (optional=templinst)_ZN6QGpgME7_detail16ThreadedJobMixinINS_14ListAllKeysJobESt5tupleIJN5GpgME13KeyListResultESt6vectorINS4_3KeyESaIS7_EES9_7QStringNS4_5ErrorEEEE12showProgressEPKciii@Base 1.7.0
 (optional=templinst)_ZN6QGpgME7_detail16ThreadedJobMixinINS_14ListAllKeysJobESt5tupleIJN5GpgME13KeyListResultESt6vectorINS4_3KeyESaIS7_EES9_7QStringNS4_5ErrorEEEED0Ev@Base 1.7.0
 (optional=templinst)_ZN6QGpgME7_detail16ThreadedJobMixinINS_14ListAllKeysJobESt5tupleIJN5GpgME13KeyListResultESt6vectorINS4_3KeyESaIS7_EES9_7QStringNS4_5ErrorEEEED1Ev@Base 1.7.0
 (optional=templinst)_ZN6QGpgME7_detail16ThreadedJobMixinINS_14ListAllKeysJobESt5tupleIJN5GpgME13KeyListResultESt6vectorINS4_3KeyESaIS7_EES9_7QStringNS4_5ErrorEEEED2Ev@Base 1.7.0
 (optional=templinst)_ZN6QGpgME7_detail16ThreadedJobMixinINS_14SignEncryptJobESt5tupleIJN5GpgME13SigningResultENS4_16EncryptionResultE10QByteArray7QStringNS4_5ErrorEEEE10resultHookERKSA_@Base 1.7.0
 (optional=templinst)_ZN6QGpgME7_detail16ThreadedJobMixinINS_14SignEncryptJobESt5tupleIJN5GpgME13SigningResultENS4_16EncryptionResultE10QByteArray7QStringNS4_5ErrorEEEE10slotCancelEv@Base 1.7.0
 (optional=templinst)_ZN6QGpgME7_detail16ThreadedJobMixinINS_14SignEncryptJobESt5tupleIJN5GpgME13SigningResultENS4_16EncryptionResultE10QByteArray7QStringNS4_5ErrorEEEE12showProgressEPKciii@Base 1.7.0
 (optional=templinst)_ZN6QGpgME7_detail16ThreadedJobMixinINS_14SignEncryptJobESt5tupleIJN5GpgME13SigningResultENS4_16EncryptionResultE10QByteArray7QStringNS4_5ErrorEEEED0Ev@Base 1.7.0
 (optional=templinst)_ZN6QGpgME7_detail16ThreadedJobMixinINS_14SignEncryptJobESt5tupleIJN5GpgME13SigningResultENS4_16EncryptionResultE10QByteArray7QStringNS4_5ErrorEEEED1Ev@Base 1.7.0
 (optional=templinst)_ZN6QGpgME7_detail16ThreadedJobMixinINS_14SignEncryptJobESt5tupleIJN5GpgME13SigningResultENS4_16EncryptionResultE10QByteArray7QStringNS4_5ErrorEEEED2Ev@Base 1.7.0
 (optional=templinst)_ZN6QGpgME7_detail16ThreadedJobMixinINS_15ChangeExpiryJobESt5tupleIJN5GpgME5ErrorE7QStringS5_EEE10resultHookERKS7_@Base 1.7.0
 (optional=templinst)_ZN6QGpgME7_detail16ThreadedJobMixinINS_15ChangeExpiryJobESt5tupleIJN5GpgME5ErrorE7QStringS5_EEE10slotCancelEv@Base 1.7.0
 (optional=templinst)_ZN6QGpgME7_detail16ThreadedJobMixinINS_15ChangeExpiryJobESt5tupleIJN5GpgME5ErrorE7QStringS5_EEE12showProgressEPKciii@Base 1.7.0
 (optional=templinst)_ZN6QGpgME7_detail16ThreadedJobMixinINS_15ChangeExpiryJobESt5tupleIJN5GpgME5ErrorE7QStringS5_EEED0Ev@Base 1.7.0
 (optional=templinst)_ZN6QGpgME7_detail16ThreadedJobMixinINS_15ChangeExpiryJobESt5tupleIJN5GpgME5ErrorE7QStringS5_EEED1Ev@Base 1.7.0
 (optional=templinst)_ZN6QGpgME7_detail16ThreadedJobMixinINS_15ChangeExpiryJobESt5tupleIJN5GpgME5ErrorE7QStringS5_EEED2Ev@Base 1.7.0
 (optional=templinst)_ZN6QGpgME7_detail16ThreadedJobMixinINS_15ChangePasswdJobESt5tupleIJN5GpgME5ErrorE7QStringS5_EEE10resultHookERKS7_@Base 1.7.0
 (optional=templinst)_ZN6QGpgME7_detail16ThreadedJobMixinINS_15ChangePasswdJobESt5tupleIJN5GpgME5ErrorE7QStringS5_EEE10slotCancelEv@Base 1.7.0
 (optional=templinst)_ZN6QGpgME7_detail16ThreadedJobMixinINS_15ChangePasswdJobESt5tupleIJN5GpgME5ErrorE7QStringS5_EEE12showProgressEPKciii@Base 1.7.0
 (optional=templinst)_ZN6QGpgME7_detail16ThreadedJobMixinINS_15ChangePasswdJobESt5tupleIJN5GpgME5ErrorE7QStringS5_EEED0Ev@Base 1.7.0
 (optional=templinst)_ZN6QGpgME7_detail16ThreadedJobMixinINS_15ChangePasswdJobESt5tupleIJN5GpgME5ErrorE7QStringS5_EEED1Ev@Base 1.7.0
 (optional=templinst)_ZN6QGpgME7_detail16ThreadedJobMixinINS_15ChangePasswdJobESt5tupleIJN5GpgME5ErrorE7QStringS5_EEED2Ev@Base 1.7.0
 (optional=templinst)_ZN6QGpgME7_detail16ThreadedJobMixinINS_15VerifyOpaqueJobESt5tupleIJN5GpgME18VerificationResultE10QByteArray7QStringNS4_5ErrorEEEE10resultHookERKS9_@Base 1.7.0
 (optional=templinst)_ZN6QGpgME7_detail16ThreadedJobMixinINS_15VerifyOpaqueJobESt5tupleIJN5GpgME18VerificationResultE10QByteArray7QStringNS4_5ErrorEEEE10slotCancelEv@Base 1.7.0
 (optional=templinst)_ZN6QGpgME7_detail16ThreadedJobMixinINS_15VerifyOpaqueJobESt5tupleIJN5GpgME18VerificationResultE10QByteArray7QStringNS4_5ErrorEEEE12showProgressEPKciii@Base 1.7.0
 (optional=templinst)_ZN6QGpgME7_detail16ThreadedJobMixinINS_15VerifyOpaqueJobESt5tupleIJN5GpgME18VerificationResultE10QByteArray7QStringNS4_5ErrorEEEED0Ev@Base 1.7.0
 (optional=templinst)_ZN6QGpgME7_detail16ThreadedJobMixinINS_15VerifyOpaqueJobESt5tupleIJN5GpgME18VerificationResultE10QByteArray7QStringNS4_5ErrorEEEED1Ev@Base 1.7.0
 (optional=templinst)_ZN6QGpgME7_detail16ThreadedJobMixinINS_15VerifyOpaqueJobESt5tupleIJN5GpgME18VerificationResultE10QByteArray7QStringNS4_5ErrorEEEED2Ev@Base 1.7.0
 (optional=templinst)_ZN6QGpgME7_detail16ThreadedJobMixinINS_16DecryptVerifyJobESt5tupleIJN5GpgME16DecryptionResultENS4_18VerificationResultE10QByteArray7QStringNS4_5ErrorEEEE10resultHookERKSA_@Base 1.7.0
 (optional=templinst)_ZN6QGpgME7_detail16ThreadedJobMixinINS_16DecryptVerifyJobESt5tupleIJN5GpgME16DecryptionResultENS4_18VerificationResultE10QByteArray7QStringNS4_5ErrorEEEE10slotCancelEv@Base 1.7.0
 (optional=templinst)_ZN6QGpgME7_detail16ThreadedJobMixinINS_16DecryptVerifyJobESt5tupleIJN5GpgME16DecryptionResultENS4_18VerificationResultE10QByteArray7QStringNS4_5ErrorEEEE12showProgressEPKciii@Base 1.7.0
 (optional=templinst)_ZN6QGpgME7_detail16ThreadedJobMixinINS_16DecryptVerifyJobESt5tupleIJN5GpgME16DecryptionResultENS4_18VerificationResultE10QByteArray7QStringNS4_5ErrorEEEED0Ev@Base 1.7.0
 (optional=templinst)_ZN6QGpgME7_detail16ThreadedJobMixinINS_16DecryptVerifyJobESt5tupleIJN5GpgME16DecryptionResultENS4_18VerificationResultE10QByteArray7QStringNS4_5ErrorEEEED1Ev@Base 1.7.0
 (optional=templinst)_ZN6QGpgME7_detail16ThreadedJobMixinINS_16DecryptVerifyJobESt5tupleIJN5GpgME16DecryptionResultENS4_18VerificationResultE10QByteArray7QStringNS4_5ErrorEEEED2Ev@Base 1.7.0
 (optional=templinst)_ZN6QGpgME7_detail16ThreadedJobMixinINS_16KeyForMailboxJobESt5tupleIJN5GpgME13KeyListResultENS4_3KeyENS4_6UserIDE7QStringNS4_5ErrorEEEE10resultHookERKSA_@Base 1.7.0
 (optional=templinst)_ZN6QGpgME7_detail16ThreadedJobMixinINS_16KeyForMailboxJobESt5tupleIJN5GpgME13KeyListResultENS4_3KeyENS4_6UserIDE7QStringNS4_5ErrorEEEE10slotCancelEv@Base 1.7.0
 (optional=templinst)_ZN6QGpgME7_detail16ThreadedJobMixinINS_16KeyForMailboxJobESt5tupleIJN5GpgME13KeyListResultENS4_3KeyENS4_6UserIDE7QStringNS4_5ErrorEEEE12showProgressEPKciii@Base 1.7.0
 (optional=templinst)_ZN6QGpgME7_detail16ThreadedJobMixinINS_16KeyForMailboxJobESt5tupleIJN5GpgME13KeyListResultENS4_3KeyENS4_6UserIDE7QStringNS4_5ErrorEEEED0Ev@Base 1.7.0
 (optional=templinst)_ZN6QGpgME7_detail16ThreadedJobMixinINS_16KeyForMailboxJobESt5tupleIJN5GpgME13KeyListResultENS4_3KeyENS4_6UserIDE7QStringNS4_5ErrorEEEED1Ev@Base 1.7.0
 (optional=templinst)_ZN6QGpgME7_detail16ThreadedJobMixinINS_16KeyForMailboxJobESt5tupleIJN5GpgME13KeyListResultENS4_3KeyENS4_6UserIDE7QStringNS4_5ErrorEEEED2Ev@Base 1.7.0
 (optional=templinst)_ZN6QGpgME7_detail16ThreadedJobMixinINS_16KeyGenerationJobESt5tupleIJN5GpgME19KeyGenerationResultE10QByteArray7QStringNS4_5ErrorEEEE10resultHookERKS9_@Base 1.7.0
 (optional=templinst)_ZN6QGpgME7_detail16ThreadedJobMixinINS_16KeyGenerationJobESt5tupleIJN5GpgME19KeyGenerationResultE10QByteArray7QStringNS4_5ErrorEEEE10slotCancelEv@Base 1.7.0
 (optional=templinst)_ZN6QGpgME7_detail16ThreadedJobMixinINS_16KeyGenerationJobESt5tupleIJN5GpgME19KeyGenerationResultE10QByteArray7QStringNS4_5ErrorEEEE12showProgressEPKciii@Base 1.7.0
 (optional=templinst)_ZN6QGpgME7_detail16ThreadedJobMixinINS_16KeyGenerationJobESt5tupleIJN5GpgME19KeyGenerationResultE10QByteArray7QStringNS4_5ErrorEEEED0Ev@Base 1.7.0
 (optional=templinst)_ZN6QGpgME7_detail16ThreadedJobMixinINS_16KeyGenerationJobESt5tupleIJN5GpgME19KeyGenerationResultE10QByteArray7QStringNS4_5ErrorEEEED1Ev@Base 1.7.0
 (optional=templinst)_ZN6QGpgME7_detail16ThreadedJobMixinINS_16KeyGenerationJobESt5tupleIJN5GpgME19KeyGenerationResultE10QByteArray7QStringNS4_5ErrorEEEED2Ev@Base 1.7.0
 (optional=templinst)_ZN6QGpgME7_detail16ThreadedJobMixinINS_17VerifyDetachedJobESt5tupleIJN5GpgME18VerificationResultE7QStringNS4_5ErrorEEEE10resultHookERKS8_@Base 1.7.0
 (optional=templinst)_ZN6QGpgME7_detail16ThreadedJobMixinINS_17VerifyDetachedJobESt5tupleIJN5GpgME18VerificationResultE7QStringNS4_5ErrorEEEE10slotCancelEv@Base 1.7.0
 (optional=templinst)_ZN6QGpgME7_detail16ThreadedJobMixinINS_17VerifyDetachedJobESt5tupleIJN5GpgME18VerificationResultE7QStringNS4_5ErrorEEEE12showProgressEPKciii@Base 1.7.0
 (optional=templinst)_ZN6QGpgME7_detail16ThreadedJobMixinINS_17VerifyDetachedJobESt5tupleIJN5GpgME18VerificationResultE7QStringNS4_5ErrorEEEED0Ev@Base 1.7.0
 (optional=templinst)_ZN6QGpgME7_detail16ThreadedJobMixinINS_17VerifyDetachedJobESt5tupleIJN5GpgME18VerificationResultE7QStringNS4_5ErrorEEEED1Ev@Base 1.7.0
 (optional=templinst)_ZN6QGpgME7_detail16ThreadedJobMixinINS_17VerifyDetachedJobESt5tupleIJN5GpgME18VerificationResultE7QStringNS4_5ErrorEEEED2Ev@Base 1.7.0
 (optional=templinst)_ZN6QGpgME7_detail16ThreadedJobMixinINS_19ChangeOwnerTrustJobESt5tupleIJN5GpgME5ErrorE7QStringS5_EEE10resultHookERKS7_@Base 1.7.0
 (optional=templinst)_ZN6QGpgME7_detail16ThreadedJobMixinINS_19ChangeOwnerTrustJobESt5tupleIJN5GpgME5ErrorE7QStringS5_EEE10slotCancelEv@Base 1.7.0
 (optional=templinst)_ZN6QGpgME7_detail16ThreadedJobMixinINS_19ChangeOwnerTrustJobESt5tupleIJN5GpgME5ErrorE7QStringS5_EEE12showProgressEPKciii@Base 1.7.0
 (optional=templinst)_ZN6QGpgME7_detail16ThreadedJobMixinINS_19ChangeOwnerTrustJobESt5tupleIJN5GpgME5ErrorE7QStringS5_EEED0Ev@Base 1.7.0
 (optional=templinst)_ZN6QGpgME7_detail16ThreadedJobMixinINS_19ChangeOwnerTrustJobESt5tupleIJN5GpgME5ErrorE7QStringS5_EEED1Ev@Base 1.7.0
 (optional=templinst)_ZN6QGpgME7_detail16ThreadedJobMixinINS_19ChangeOwnerTrustJobESt5tupleIJN5GpgME5ErrorE7QStringS5_EEED2Ev@Base 1.7.0
 (optional=templinst)_ZN6QGpgME7_detail16ThreadedJobMixinINS_22ImportFromKeyserverJobESt5tupleIJN5GpgME12ImportResultE7QStringNS4_5ErrorEEEE10resultHookERKS8_@Base 1.7.0
 (optional=templinst)_ZN6QGpgME7_detail16ThreadedJobMixinINS_22ImportFromKeyserverJobESt5tupleIJN5GpgME12ImportResultE7QStringNS4_5ErrorEEEE10slotCancelEv@Base 1.7.0
 (optional=templinst)_ZN6QGpgME7_detail16ThreadedJobMixinINS_22ImportFromKeyserverJobESt5tupleIJN5GpgME12ImportResultE7QStringNS4_5ErrorEEEE12showProgressEPKciii@Base 1.7.0
 (optional=templinst)_ZN6QGpgME7_detail16ThreadedJobMixinINS_22ImportFromKeyserverJobESt5tupleIJN5GpgME12ImportResultE7QStringNS4_5ErrorEEEED0Ev@Base 1.7.0
 (optional=templinst)_ZN6QGpgME7_detail16ThreadedJobMixinINS_22ImportFromKeyserverJobESt5tupleIJN5GpgME12ImportResultE7QStringNS4_5ErrorEEEED1Ev@Base 1.7.0
 (optional=templinst)_ZN6QGpgME7_detail16ThreadedJobMixinINS_22ImportFromKeyserverJobESt5tupleIJN5GpgME12ImportResultE7QStringNS4_5ErrorEEEED2Ev@Base 1.7.0
 (optional=templinst)_ZN6QGpgME7_detail16ThreadedJobMixinINS_7SignJobESt5tupleIJN5GpgME13SigningResultE10QByteArray7QStringNS4_5ErrorEEEE10resultHookERKS9_@Base 1.7.0
 (optional=templinst)_ZN6QGpgME7_detail16ThreadedJobMixinINS_7SignJobESt5tupleIJN5GpgME13SigningResultE10QByteArray7QStringNS4_5ErrorEEEE10slotCancelEv@Base 1.7.0
 (optional=templinst)_ZN6QGpgME7_detail16ThreadedJobMixinINS_7SignJobESt5tupleIJN5GpgME13SigningResultE10QByteArray7QStringNS4_5ErrorEEEE12showProgressEPKciii@Base 1.7.0
 (optional=templinst)_ZN6QGpgME7_detail16ThreadedJobMixinINS_7SignJobESt5tupleIJN5GpgME13SigningResultE10QByteArray7QStringNS4_5ErrorEEEED0Ev@Base 1.7.0
 (optional=templinst)_ZN6QGpgME7_detail16ThreadedJobMixinINS_7SignJobESt5tupleIJN5GpgME13SigningResultE10QByteArray7QStringNS4_5ErrorEEEED1Ev@Base 1.7.0
 (optional=templinst)_ZN6QGpgME7_detail16ThreadedJobMixinINS_7SignJobESt5tupleIJN5GpgME13SigningResultE10QByteArray7QStringNS4_5ErrorEEEED2Ev@Base 1.7.0
 (optional=templinst)_ZN6QGpgME7_detail16ThreadedJobMixinINS_9DeleteJobESt5tupleIJN5GpgME5ErrorE7QStringS5_EEE10resultHookERKS7_@Base 1.7.0
 (optional=templinst)_ZN6QGpgME7_detail16ThreadedJobMixinINS_9DeleteJobESt5tupleIJN5GpgME5ErrorE7QStringS5_EEE10slotCancelEv@Base 1.7.0
 (optional=templinst)_ZN6QGpgME7_detail16ThreadedJobMixinINS_9DeleteJobESt5tupleIJN5GpgME5ErrorE7QStringS5_EEE12showProgressEPKciii@Base 1.7.0
 (optional=templinst)_ZN6QGpgME7_detail16ThreadedJobMixinINS_9DeleteJobESt5tupleIJN5GpgME5ErrorE7QStringS5_EEED0Ev@Base 1.7.0
 (optional=templinst)_ZN6QGpgME7_detail16ThreadedJobMixinINS_9DeleteJobESt5tupleIJN5GpgME5ErrorE7QStringS5_EEED1Ev@Base 1.7.0
 (optional=templinst)_ZN6QGpgME7_detail16ThreadedJobMixinINS_9DeleteJobESt5tupleIJN5GpgME5ErrorE7QStringS5_EEED2Ev@Base 1.7.0
 (optional=templinst)_ZN6QGpgME7_detail16ThreadedJobMixinINS_9ExportJobESt5tupleIJN5GpgME5ErrorE10QByteArray7QStringS5_EEE10resultHookERKS8_@Base 1.7.0
 (optional=templinst)_ZN6QGpgME7_detail16ThreadedJobMixinINS_9ExportJobESt5tupleIJN5GpgME5ErrorE10QByteArray7QStringS5_EEE10slotCancelEv@Base 1.7.0
 (optional=templinst)_ZN6QGpgME7_detail16ThreadedJobMixinINS_9ExportJobESt5tupleIJN5GpgME5ErrorE10QByteArray7QStringS5_EEE12showProgressEPKciii@Base 1.7.0
 (optional=templinst)_ZN6QGpgME7_detail16ThreadedJobMixinINS_9ExportJobESt5tupleIJN5GpgME5ErrorE10QByteArray7QStringS5_EEED0Ev@Base 1.7.0
 (optional=templinst)_ZN6QGpgME7_detail16ThreadedJobMixinINS_9ExportJobESt5tupleIJN5GpgME5ErrorE10QByteArray7QStringS5_EEED1Ev@Base 1.7.0
 (optional=templinst)_ZN6QGpgME7_detail16ThreadedJobMixinINS_9ExportJobESt5tupleIJN5GpgME5ErrorE10QByteArray7QStringS5_EEED2Ev@Base 1.7.0
 (optional=templinst)_ZN6QGpgME7_detail16ThreadedJobMixinINS_9ImportJobESt5tupleIJN5GpgME12ImportResultE7QStringNS4_5ErrorEEEE10resultHookERKS8_@Base 1.7.0
 (optional=templinst)_ZN6QGpgME7_detail16ThreadedJobMixinINS_9ImportJobESt5tupleIJN5GpgME12ImportResultE7QStringNS4_5ErrorEEEE10slotCancelEv@Base 1.7.0
 (optional=templinst)_ZN6QGpgME7_detail16ThreadedJobMixinINS_9ImportJobESt5tupleIJN5GpgME12ImportResultE7QStringNS4_5ErrorEEEE12showProgressEPKciii@Base 1.7.0
 (optional=templinst)_ZN6QGpgME7_detail16ThreadedJobMixinINS_9ImportJobESt5tupleIJN5GpgME12ImportResultE7QStringNS4_5ErrorEEEED0Ev@Base 1.7.0
 (optional=templinst)_ZN6QGpgME7_detail16ThreadedJobMixinINS_9ImportJobESt5tupleIJN5GpgME12ImportResultE7QStringNS4_5ErrorEEEED1Ev@Base 1.7.0
 (optional=templinst)_ZN6QGpgME7_detail16ThreadedJobMixinINS_9ImportJobESt5tupleIJN5GpgME12ImportResultE7QStringNS4_5ErrorEEEED2Ev@Base 1.7.0
 _ZN6QGpgME7_detail17audit_log_as_htmlEPN5GpgME7ContextERNS1_5ErrorE@Base 1.7.0
 (optional=templinst)_ZN6QGpgME7_detail6ThreadISt5tupleIJN5GpgME12ImportResultE7QStringNS3_5ErrorEEEE3runEv@Base 1.7.0
 (optional=templinst)_ZN6QGpgME7_detail6ThreadISt5tupleIJN5GpgME12ImportResultE7QStringNS3_5ErrorEEEED0Ev@Base 1.7.0
 (optional=templinst)_ZN6QGpgME7_detail6ThreadISt5tupleIJN5GpgME12ImportResultE7QStringNS3_5ErrorEEEED1Ev@Base 1.7.0
 (optional=templinst)_ZN6QGpgME7_detail6ThreadISt5tupleIJN5GpgME12ImportResultE7QStringNS3_5ErrorEEEED2Ev@Base 1.7.0
 (optional=templinst)_ZN6QGpgME7_detail6ThreadISt5tupleIJN5GpgME13KeyListResultENS3_3KeyENS3_6UserIDE7QStringNS3_5ErrorEEEE3runEv@Base 1.7.0
 (optional=templinst)_ZN6QGpgME7_detail6ThreadISt5tupleIJN5GpgME13KeyListResultENS3_3KeyENS3_6UserIDE7QStringNS3_5ErrorEEEED0Ev@Base 1.7.0
 (optional=templinst)_ZN6QGpgME7_detail6ThreadISt5tupleIJN5GpgME13KeyListResultENS3_3KeyENS3_6UserIDE7QStringNS3_5ErrorEEEED1Ev@Base 1.7.0
 (optional=templinst)_ZN6QGpgME7_detail6ThreadISt5tupleIJN5GpgME13KeyListResultENS3_3KeyENS3_6UserIDE7QStringNS3_5ErrorEEEED2Ev@Base 1.7.0
 (optional=templinst)_ZN6QGpgME7_detail6ThreadISt5tupleIJN5GpgME13KeyListResultESt6vectorINS3_3KeyESaIS6_EE7QStringNS3_5ErrorEEEE3runEv@Base 1.7.0
 (optional=templinst)_ZN6QGpgME7_detail6ThreadISt5tupleIJN5GpgME13KeyListResultESt6vectorINS3_3KeyESaIS6_EE7QStringNS3_5ErrorEEEED0Ev@Base 1.7.0
 (optional=templinst)_ZN6QGpgME7_detail6ThreadISt5tupleIJN5GpgME13KeyListResultESt6vectorINS3_3KeyESaIS6_EE7QStringNS3_5ErrorEEEED1Ev@Base 1.7.0
 (optional=templinst)_ZN6QGpgME7_detail6ThreadISt5tupleIJN5GpgME13KeyListResultESt6vectorINS3_3KeyESaIS6_EE7QStringNS3_5ErrorEEEED2Ev@Base 1.7.0
 (optional=templinst)_ZN6QGpgME7_detail6ThreadISt5tupleIJN5GpgME13KeyListResultESt6vectorINS3_3KeyESaIS6_EES8_7QStringNS3_5ErrorEEEE3runEv@Base 1.7.0
 (optional=templinst)_ZN6QGpgME7_detail6ThreadISt5tupleIJN5GpgME13KeyListResultESt6vectorINS3_3KeyESaIS6_EES8_7QStringNS3_5ErrorEEEED0Ev@Base 1.7.0
 (optional=templinst)_ZN6QGpgME7_detail6ThreadISt5tupleIJN5GpgME13KeyListResultESt6vectorINS3_3KeyESaIS6_EES8_7QStringNS3_5ErrorEEEED1Ev@Base 1.7.0
 (optional=templinst)_ZN6QGpgME7_detail6ThreadISt5tupleIJN5GpgME13KeyListResultESt6vectorINS3_3KeyESaIS6_EES8_7QStringNS3_5ErrorEEEED2Ev@Base 1.7.0
 (optional=templinst)_ZN6QGpgME7_detail6ThreadISt5tupleIJN5GpgME13SigningResultE10QByteArray7QStringNS3_5ErrorEEEE3runEv@Base 1.7.0
 (optional=templinst)_ZN6QGpgME7_detail6ThreadISt5tupleIJN5GpgME13SigningResultE10QByteArray7QStringNS3_5ErrorEEEED0Ev@Base 1.7.0
 (optional=templinst)_ZN6QGpgME7_detail6ThreadISt5tupleIJN5GpgME13SigningResultE10QByteArray7QStringNS3_5ErrorEEEED1Ev@Base 1.7.0
 (optional=templinst)_ZN6QGpgME7_detail6ThreadISt5tupleIJN5GpgME13SigningResultE10QByteArray7QStringNS3_5ErrorEEEED2Ev@Base 1.7.0
 (optional=templinst)_ZN6QGpgME7_detail6ThreadISt5tupleIJN5GpgME13SigningResultENS3_16EncryptionResultE10QByteArray7QStringNS3_5ErrorEEEE3runEv@Base 1.7.0
 (optional=templinst)_ZN6QGpgME7_detail6ThreadISt5tupleIJN5GpgME13SigningResultENS3_16EncryptionResultE10QByteArray7QStringNS3_5ErrorEEEED0Ev@Base 1.7.0
 (optional=templinst)_ZN6QGpgME7_detail6ThreadISt5tupleIJN5GpgME13SigningResultENS3_16EncryptionResultE10QByteArray7QStringNS3_5ErrorEEEED1Ev@Base 1.7.0
 (optional=templinst)_ZN6QGpgME7_detail6ThreadISt5tupleIJN5GpgME13SigningResultENS3_16EncryptionResultE10QByteArray7QStringNS3_5ErrorEEEED2Ev@Base 1.7.0
 (optional=templinst)_ZN6QGpgME7_detail6ThreadISt5tupleIJN5GpgME16DecryptionResultE10QByteArray7QStringNS3_5ErrorEEEE3runEv@Base 1.7.0
 (optional=templinst)_ZN6QGpgME7_detail6ThreadISt5tupleIJN5GpgME16DecryptionResultE10QByteArray7QStringNS3_5ErrorEEEED0Ev@Base 1.7.0
 (optional=templinst)_ZN6QGpgME7_detail6ThreadISt5tupleIJN5GpgME16DecryptionResultE10QByteArray7QStringNS3_5ErrorEEEED1Ev@Base 1.7.0
 (optional=templinst)_ZN6QGpgME7_detail6ThreadISt5tupleIJN5GpgME16DecryptionResultE10QByteArray7QStringNS3_5ErrorEEEED2Ev@Base 1.7.0
 (optional=templinst)_ZN6QGpgME7_detail6ThreadISt5tupleIJN5GpgME16DecryptionResultENS3_18VerificationResultE10QByteArray7QStringNS3_5ErrorEEEE3runEv@Base 1.7.0
 (optional=templinst)_ZN6QGpgME7_detail6ThreadISt5tupleIJN5GpgME16DecryptionResultENS3_18VerificationResultE10QByteArray7QStringNS3_5ErrorEEEED0Ev@Base 1.7.0
 (optional=templinst)_ZN6QGpgME7_detail6ThreadISt5tupleIJN5GpgME16DecryptionResultENS3_18VerificationResultE10QByteArray7QStringNS3_5ErrorEEEED1Ev@Base 1.7.0
 (optional=templinst)_ZN6QGpgME7_detail6ThreadISt5tupleIJN5GpgME16DecryptionResultENS3_18VerificationResultE10QByteArray7QStringNS3_5ErrorEEEED2Ev@Base 1.7.0
 (optional=templinst)_ZN6QGpgME7_detail6ThreadISt5tupleIJN5GpgME16EncryptionResultE10QByteArray7QStringNS3_5ErrorEEEE3runEv@Base 1.7.0
 (optional=templinst)_ZN6QGpgME7_detail6ThreadISt5tupleIJN5GpgME16EncryptionResultE10QByteArray7QStringNS3_5ErrorEEEED0Ev@Base 1.7.0
 (optional=templinst)_ZN6QGpgME7_detail6ThreadISt5tupleIJN5GpgME16EncryptionResultE10QByteArray7QStringNS3_5ErrorEEEED1Ev@Base 1.7.0
 (optional=templinst)_ZN6QGpgME7_detail6ThreadISt5tupleIJN5GpgME16EncryptionResultE10QByteArray7QStringNS3_5ErrorEEEED2Ev@Base 1.7.0
 (optional=templinst)_ZN6QGpgME7_detail6ThreadISt5tupleIJN5GpgME18VerificationResultE10QByteArray7QStringNS3_5ErrorEEEE3runEv@Base 1.7.0
 (optional=templinst)_ZN6QGpgME7_detail6ThreadISt5tupleIJN5GpgME18VerificationResultE10QByteArray7QStringNS3_5ErrorEEEED0Ev@Base 1.7.0
 (optional=templinst)_ZN6QGpgME7_detail6ThreadISt5tupleIJN5GpgME18VerificationResultE10QByteArray7QStringNS3_5ErrorEEEED1Ev@Base 1.7.0
 (optional=templinst)_ZN6QGpgME7_detail6ThreadISt5tupleIJN5GpgME18VerificationResultE10QByteArray7QStringNS3_5ErrorEEEED2Ev@Base 1.7.0
 (optional=templinst)_ZN6QGpgME7_detail6ThreadISt5tupleIJN5GpgME18VerificationResultE7QStringNS3_5ErrorEEEE3runEv@Base 1.7.0
 (optional=templinst)_ZN6QGpgME7_detail6ThreadISt5tupleIJN5GpgME18VerificationResultE7QStringNS3_5ErrorEEEED0Ev@Base 1.7.0
 (optional=templinst)_ZN6QGpgME7_detail6ThreadISt5tupleIJN5GpgME18VerificationResultE7QStringNS3_5ErrorEEEED1Ev@Base 1.7.0
 (optional=templinst)_ZN6QGpgME7_detail6ThreadISt5tupleIJN5GpgME18VerificationResultE7QStringNS3_5ErrorEEEED2Ev@Base 1.7.0
 (optional=templinst)_ZN6QGpgME7_detail6ThreadISt5tupleIJN5GpgME19KeyGenerationResultE10QByteArray7QStringNS3_5ErrorEEEE3runEv@Base 1.7.0
 (optional=templinst)_ZN6QGpgME7_detail6ThreadISt5tupleIJN5GpgME19KeyGenerationResultE10QByteArray7QStringNS3_5ErrorEEEED0Ev@Base 1.7.0
 (optional=templinst)_ZN6QGpgME7_detail6ThreadISt5tupleIJN5GpgME19KeyGenerationResultE10QByteArray7QStringNS3_5ErrorEEEED1Ev@Base 1.7.0
 (optional=templinst)_ZN6QGpgME7_detail6ThreadISt5tupleIJN5GpgME19KeyGenerationResultE10QByteArray7QStringNS3_5ErrorEEEED2Ev@Base 1.7.0
 (optional=templinst)_ZN6QGpgME7_detail6ThreadISt5tupleIJN5GpgME5ErrorE10QByteArray7QStringS4_EEE3runEv@Base 1.7.0
 (optional=templinst)_ZN6QGpgME7_detail6ThreadISt5tupleIJN5GpgME5ErrorE10QByteArray7QStringS4_EEED0Ev@Base 1.7.0
 (optional=templinst)_ZN6QGpgME7_detail6ThreadISt5tupleIJN5GpgME5ErrorE10QByteArray7QStringS4_EEED1Ev@Base 1.7.0
 (optional=templinst)_ZN6QGpgME7_detail6ThreadISt5tupleIJN5GpgME5ErrorE10QByteArray7QStringS4_EEED2Ev@Base 1.7.0
 (optional=templinst)_ZN6QGpgME7_detail6ThreadISt5tupleIJN5GpgME5ErrorE10QByteArrayS5_7QStringS4_EEE3runEv@Base 1.7.0
 (optional=templinst)_ZN6QGpgME7_detail6ThreadISt5tupleIJN5GpgME5ErrorE10QByteArrayS5_7QStringS4_EEED0Ev@Base 1.7.0
 (optional=templinst)_ZN6QGpgME7_detail6ThreadISt5tupleIJN5GpgME5ErrorE10QByteArrayS5_7QStringS4_EEED1Ev@Base 1.7.0
 (optional=templinst)_ZN6QGpgME7_detail6ThreadISt5tupleIJN5GpgME5ErrorE10QByteArrayS5_7QStringS4_EEED2Ev@Base 1.7.0
 (optional=templinst)_ZN6QGpgME7_detail6ThreadISt5tupleIJN5GpgME5ErrorE7QStringS4_EEE3runEv@Base 1.7.0
 (optional=templinst)_ZN6QGpgME7_detail6ThreadISt5tupleIJN5GpgME5ErrorE7QStringS4_EEED0Ev@Base 1.7.0
 (optional=templinst)_ZN6QGpgME7_detail6ThreadISt5tupleIJN5GpgME5ErrorE7QStringS4_EEED1Ev@Base 1.7.0
 (optional=templinst)_ZN6QGpgME7_detail6ThreadISt5tupleIJN5GpgME5ErrorE7QStringS4_EEED2Ev@Base 1.7.0
 _ZN6QGpgME7openpgpEv@Base 1.7.0
 _ZN6QGpgME9DeleteJob11qt_metacallEN11QMetaObject4CallEiPPv@Base 1.7.0
 _ZN6QGpgME9DeleteJob11qt_metacastEPKc@Base 1.7.0
 _ZN6QGpgME9DeleteJob16staticMetaObjectE@Base 1.7.0
 _ZN6QGpgME9DeleteJob6resultERKN5GpgME5ErrorERK7QStringS4_@Base 1.7.0
 _ZN6QGpgME9DeleteJobC1EP7QObject@Base 1.7.0
 _ZN6QGpgME9DeleteJobC2EP7QObject@Base 1.7.0
 _ZN6QGpgME9DeleteJobD0Ev@Base 1.7.0
 _ZN6QGpgME9DeleteJobD1Ev@Base 1.7.0
 _ZN6QGpgME9DeleteJobD2Ev@Base 1.7.0
 _ZN6QGpgME9ExportJob11qt_metacallEN11QMetaObject4CallEiPPv@Base 1.7.0
 _ZN6QGpgME9ExportJob11qt_metacastEPKc@Base 1.7.0
 _ZN6QGpgME9ExportJob16staticMetaObjectE@Base 1.7.0
 _ZN6QGpgME9ExportJob6resultERKN5GpgME5ErrorERK10QByteArrayRK7QStringS4_@Base 1.7.0
 _ZN6QGpgME9ExportJobC1EP7QObject@Base 1.7.0
 _ZN6QGpgME9ExportJobC2EP7QObject@Base 1.7.0
 _ZN6QGpgME9ExportJobD0Ev@Base 1.7.0
 _ZN6QGpgME9ExportJobD1Ev@Base 1.7.0
 _ZN6QGpgME9ExportJobD2Ev@Base 1.7.0
 _ZN6QGpgME9ImportJob11qt_metacallEN11QMetaObject4CallEiPPv@Base 1.7.0
 _ZN6QGpgME9ImportJob11qt_metacastEPKc@Base 1.7.0
 _ZN6QGpgME9ImportJob16staticMetaObjectE@Base 1.7.0
 _ZN6QGpgME9ImportJobC1EP7QObject@Base 1.7.0
 _ZN6QGpgME9ImportJobC2EP7QObject@Base 1.7.0
 _ZN6QGpgME9ImportJobD0Ev@Base 1.7.0
 _ZN6QGpgME9ImportJobD1Ev@Base 1.7.0
 _ZN6QGpgME9ImportJobD2Ev@Base 1.7.0
 _ZN7QStringD1Ev@Base 1.7.0
 _ZN7QStringD2Ev@Base 1.7.0
 (optional=templinst)_ZN9QtPrivate11QSlotObjectIM7QObjectFvvENS_4ListIJEEEvE4implEiPNS_15QSlotObjectBaseEPS1_PPvPb@Base 1.7.0
 (optional=templinst)_ZN9QtPrivate11QSlotObjectIMN6QGpgME20QGpgMERefreshKeysJobEFvvENS_4ListIJEEEvE4implEiPNS_15QSlotObjectBaseEP7QObjectPPvPb@Base 1.7.0
 (optional=templinst)_ZN9QtPrivate11QSlotObjectIMN6QGpgME23DefaultKeyGenerationJobEFvRKN5GpgME19KeyGenerationResultERK10QByteArrayRK7QStringRKNS3_5ErrorEENS_4ListIJS6_S9_SC_SF_EEEvE4implEiPNS_15QSlotObjectBaseEP7QObjectPPvPb@Base 1.7.0
 (optional=templinst)_ZN9QtPrivate11QSlotObjectIMN6QGpgME24QGpgMESecretKeyExportJobEFvvENS_4ListIJEEEvE4implEiPNS_15QSlotObjectBaseEP7QObjectPPvPb@Base 1.7.0
 (optional=templinst)_ZN9QtPrivate11QSlotObjectIMN6QGpgME3JobEFvvENS_4ListIJEEEvE4implEiPNS_15QSlotObjectBaseEP7QObjectPPvPb@Base 1.7.0
 _ZNK21QGpgMENewCryptoConfig13componentListEv@Base 1.7.0
 _ZNK21QGpgMENewCryptoConfig9componentERK7QString@Base 1.7.0
 _ZNK26QGpgMENewCryptoConfigEntry10isOptionalEv@Base 1.7.0
 _ZNK26QGpgMENewCryptoConfigEntry10isReadOnlyEv@Base 1.7.0
 _ZNK26QGpgMENewCryptoConfigEntry11descriptionEv@Base 1.7.0
 _ZNK26QGpgMENewCryptoConfigEntry11stringValueEv@Base 1.7.0
 _ZNK26QGpgMENewCryptoConfigEntry12intValueListEv@Base 1.7.0
 _ZNK26QGpgMENewCryptoConfigEntry12urlValueListEv@Base 1.7.0
 _ZNK26QGpgMENewCryptoConfigEntry13uintValueListEv@Base 1.7.0
 _ZNK26QGpgMENewCryptoConfigEntry16numberOfTimesSetEv@Base 1.7.0
 _ZNK26QGpgMENewCryptoConfigEntry4nameEv@Base 1.7.0
 _ZNK26QGpgMENewCryptoConfigEntry4pathEv@Base 1.7.0
 _ZNK26QGpgMENewCryptoConfigEntry5isSetEv@Base 1.7.0
 _ZNK26QGpgMENewCryptoConfigEntry5levelEv@Base 1.7.0
 _ZNK26QGpgMENewCryptoConfigEntry6isListEv@Base 1.7.0
 _ZNK26QGpgMENewCryptoConfigEntry7argTypeEv@Base 1.7.0
 _ZNK26QGpgMENewCryptoConfigEntry7isDirtyEv@Base 1.7.0
 _ZNK26QGpgMENewCryptoConfigEntry8intValueEv@Base 1.7.0
 _ZNK26QGpgMENewCryptoConfigEntry8urlValueEv@Base 1.7.0
 _ZNK26QGpgMENewCryptoConfigEntry9boolValueEv@Base 1.7.0
 _ZNK26QGpgMENewCryptoConfigEntry9isRuntimeEv@Base 1.7.0
 _ZNK26QGpgMENewCryptoConfigEntry9uintValueEv@Base 1.7.0
 _ZNK26QGpgMENewCryptoConfigGroup11descriptionEv@Base 1.7.0
 _ZNK26QGpgMENewCryptoConfigGroup4nameEv@Base 1.7.0
 _ZNK26QGpgMENewCryptoConfigGroup4pathEv@Base 1.7.0
 _ZNK26QGpgMENewCryptoConfigGroup5entryERK7QString@Base 1.7.0
 _ZNK26QGpgMENewCryptoConfigGroup5levelEv@Base 1.7.0
 _ZNK26QGpgMENewCryptoConfigGroup8iconNameEv@Base 1.7.0
 _ZNK26QGpgMENewCryptoConfigGroup9entryListEv@Base 1.7.0
 _ZNK30QGpgMENewCryptoConfigComponent11descriptionEv@Base 1.7.0
 _ZNK30QGpgMENewCryptoConfigComponent4nameEv@Base 1.7.0
 _ZNK30QGpgMENewCryptoConfigComponent5groupERK7QString@Base 1.7.0
 _ZNK30QGpgMENewCryptoConfigComponent8iconNameEv@Base 1.7.0
 _ZNK30QGpgMENewCryptoConfigComponent9groupListEv@Base 1.7.0
 (optional=templinst)_ZNK5QHashI7QStringSt10shared_ptrI26QGpgMENewCryptoConfigEntryEE8findNodeERKS0_Pj@Base 1.7.0
 (optional=templinst)_ZNK5QHashI7QStringSt10shared_ptrI26QGpgMENewCryptoConfigGroupEE8findNodeERKS0_Pj@Base 1.7.0
 (optional=templinst)_ZNK5QHashI7QStringSt10shared_ptrI30QGpgMENewCryptoConfigComponentEE8findNodeERKS0_Pj@Base 1.7.0
 (optional=templinst)_ZNK5QListI7QStringE3midEii@Base 1.7.0
 _ZNK6QGpgME10DecryptJob10metaObjectEv@Base 1.7.0
 _ZNK6QGpgME10EncryptJob10metaObjectEv@Base 1.7.0
 _ZNK6QGpgME10KeyListJob10metaObjectEv@Base 1.7.0
 _ZNK6QGpgME10SignKeyJob10metaObjectEv@Base 1.7.0
 _ZNK6QGpgME10SpecialJob10metaObjectEv@Base 1.7.0
 _ZNK6QGpgME11DownloadJob10metaObjectEv@Base 1.7.0
 _ZNK6QGpgME12AddUserIDJob10metaObjectEv@Base 1.7.0
 _ZNK6QGpgME13QGpgMEBackend11displayNameEv@Base 1.7.0
 _ZNK6QGpgME13QGpgMEBackend13checkForSMIMEEP7QString@Base 1.7.0
 _ZNK6QGpgME13QGpgMEBackend15checkForOpenPGPEP7QString@Base 1.7.0
 _ZNK6QGpgME13QGpgMEBackend16checkForProtocolEPKcP7QString@Base 1.7.0
 _ZNK6QGpgME13QGpgMEBackend16supportsProtocolEPKc@Base 1.7.0
 _ZNK6QGpgME13QGpgMEBackend18enumerateProtocolsEi@Base 1.7.0
 _ZNK6QGpgME13QGpgMEBackend4nameEv@Base 1.7.0
 _ZNK6QGpgME13QGpgMEBackend5smimeEv@Base 1.7.0
 _ZNK6QGpgME13QGpgMEBackend6configEv@Base 1.7.0
 _ZNK6QGpgME13QGpgMEBackend7openpgpEv@Base 1.7.0
 _ZNK6QGpgME13QGpgMEBackend8protocolEPKc@Base 1.7.0
 _ZNK6QGpgME13QGpgMESignJob10metaObjectEv@Base 1.7.0
 _ZNK6QGpgME13TofuPolicyJob10metaObjectEv@Base 1.7.0
 _ZNK6QGpgME13WKSPublishJob10metaObjectEv@Base 1.7.0
 _ZNK6QGpgME14ListAllKeysJob10metaObjectEv@Base 1.7.0
 _ZNK6QGpgME14RefreshKeysJob10metaObjectEv@Base 1.7.0
 _ZNK6QGpgME14SignEncryptJob10metaObjectEv@Base 1.7.0
 _ZNK6QGpgME15ChangeExpiryJob10metaObjectEv@Base 1.7.0
 _ZNK6QGpgME15ChangePasswdJob10metaObjectEv@Base 1.7.0
 _ZNK6QGpgME15QGpgMEDeleteJob10metaObjectEv@Base 1.7.0
 _ZNK6QGpgME15QGpgMEExportJob10metaObjectEv@Base 1.7.0
 _ZNK6QGpgME15QGpgMEImportJob10metaObjectEv@Base 1.7.0
 _ZNK6QGpgME15VerifyOpaqueJob10metaObjectEv@Base 1.7.0
 _ZNK6QGpgME16DecryptVerifyJob10metaObjectEv@Base 1.7.0
 _ZNK6QGpgME16KeyForMailboxJob10metaObjectEv@Base 1.7.0
 _ZNK6QGpgME16KeyGenerationJob10metaObjectEv@Base 1.7.0
 _ZNK6QGpgME16QGpgMEDecryptJob10metaObjectEv@Base 1.7.0
 _ZNK6QGpgME16QGpgMEEncryptJob10metaObjectEv@Base 1.7.0
 _ZNK6QGpgME16QGpgMEKeyListJob10metaObjectEv@Base 1.7.0
 _ZNK6QGpgME16QGpgMESignKeyJob10metaObjectEv@Base 1.7.0
 _ZNK6QGpgME17AbstractImportJob10metaObjectEv@Base 1.7.0
 _ZNK6QGpgME17QGpgMEDownloadJob10metaObjectEv@Base 1.7.0
 _ZNK6QGpgME17VerifyDetachedJob10metaObjectEv@Base 1.7.0
 _ZNK6QGpgME18QGpgMEAddUserIDJob10metaObjectEv@Base 1.7.0
 _ZNK6QGpgME19ChangeOwnerTrustJob10metaObjectEv@Base 1.7.0
 _ZNK6QGpgME19QGpgMETofuPolicyJob10metaObjectEv@Base 1.7.0
 _ZNK6QGpgME19QGpgMEWKSPublishJob10metaObjectEv@Base 1.7.0
 _ZNK6QGpgME20QGpgMEListAllKeysJob10metaObjectEv@Base 1.7.0
 _ZNK6QGpgME20QGpgMERefreshKeysJob10metaObjectEv@Base 1.7.0
 _ZNK6QGpgME20QGpgMESignEncryptJob10metaObjectEv@Base 1.7.0
 _ZNK6QGpgME21QGpgMEChangeExpiryJob10metaObjectEv@Base 1.7.0
 _ZNK6QGpgME21QGpgMEChangePasswdJob10metaObjectEv@Base 1.7.0
 _ZNK6QGpgME21QGpgMEVerifyOpaqueJob10metaObjectEv@Base 1.7.0
 _ZNK6QGpgME21QIODeviceDataProvider11isSupportedEN5GpgME12DataProvider9OperationE@Base 1.7.0
 _ZNK6QGpgME22ImportFromKeyserverJob10metaObjectEv@Base 1.7.0
 _ZNK6QGpgME22QByteArrayDataProvider11isSupportedEN5GpgME12DataProvider9OperationE@Base 1.7.0
 _ZNK6QGpgME22QGpgMEDecryptVerifyJob10metaObjectEv@Base 1.7.0
 _ZNK6QGpgME22QGpgMEKeyForMailboxJob10metaObjectEv@Base 1.7.0
 _ZNK6QGpgME22QGpgMEKeyGenerationJob10metaObjectEv@Base 1.7.0
 _ZNK6QGpgME23DefaultKeyGenerationJob10metaObjectEv@Base 1.7.0
 _ZNK6QGpgME23DefaultKeyGenerationJob13auditLogErrorEv@Base 1.7.0
 _ZNK6QGpgME23DefaultKeyGenerationJob14auditLogAsHtmlEv@Base 1.7.0
 _ZNK6QGpgME23QGpgMEVerifyDetachedJob10metaObjectEv@Base 1.7.0
 _ZNK6QGpgME24QGpgMESecretKeyExportJob10metaObjectEv@Base 1.7.0
 _ZNK6QGpgME25QGpgMEChangeOwnerTrustJob10metaObjectEv@Base 1.7.0
 _ZNK6QGpgME28QGpgMEImportFromKeyserverJob10metaObjectEv@Base 1.7.0
 _ZNK6QGpgME3Job10metaObjectEv@Base 1.7.0
 _ZNK6QGpgME3Job13auditLogErrorEv@Base 1.7.0
 _ZNK6QGpgME3Job14auditLogAsHtmlEv@Base 1.7.0
 _ZNK6QGpgME3Job19isAuditLogSupportedEv@Base 1.7.0
 _ZNK6QGpgME7SignJob10metaObjectEv@Base 1.7.0
 _ZNK6QGpgME7_detail16PatternConverter8patternsEv@Base 1.7.0
 (optional=templinst)_ZNK6QGpgME7_detail16ThreadedJobMixinINS_10DecryptJobESt5tupleIJN5GpgME16DecryptionResultE10QByteArray7QStringNS4_5ErrorEEEE13auditLogErrorEv@Base 1.7.0
 (optional=templinst)_ZNK6QGpgME7_detail16ThreadedJobMixinINS_10DecryptJobESt5tupleIJN5GpgME16DecryptionResultE10QByteArray7QStringNS4_5ErrorEEEE14auditLogAsHtmlEv@Base 1.7.0
 (optional=templinst)_ZNK6QGpgME7_detail16ThreadedJobMixinINS_10EncryptJobESt5tupleIJN5GpgME16EncryptionResultE10QByteArray7QStringNS4_5ErrorEEEE13auditLogErrorEv@Base 1.7.0
 (optional=templinst)_ZNK6QGpgME7_detail16ThreadedJobMixinINS_10EncryptJobESt5tupleIJN5GpgME16EncryptionResultE10QByteArray7QStringNS4_5ErrorEEEE14auditLogAsHtmlEv@Base 1.7.0
 (optional=templinst)_ZNK6QGpgME7_detail16ThreadedJobMixinINS_10KeyListJobESt5tupleIJN5GpgME13KeyListResultESt6vectorINS4_3KeyESaIS7_EE7QStringNS4_5ErrorEEEE13auditLogErrorEv@Base 1.7.0
 (optional=templinst)_ZNK6QGpgME7_detail16ThreadedJobMixinINS_10KeyListJobESt5tupleIJN5GpgME13KeyListResultESt6vectorINS4_3KeyESaIS7_EE7QStringNS4_5ErrorEEEE14auditLogAsHtmlEv@Base 1.7.0
 (optional=templinst)_ZNK6QGpgME7_detail16ThreadedJobMixinINS_10SignKeyJobESt5tupleIJN5GpgME5ErrorE7QStringS5_EEE13auditLogErrorEv@Base 1.7.0
 (optional=templinst)_ZNK6QGpgME7_detail16ThreadedJobMixinINS_10SignKeyJobESt5tupleIJN5GpgME5ErrorE7QStringS5_EEE14auditLogAsHtmlEv@Base 1.7.0
 (optional=templinst)_ZNK6QGpgME7_detail16ThreadedJobMixinINS_11DownloadJobESt5tupleIJN5GpgME5ErrorE10QByteArray7QStringS5_EEE13auditLogErrorEv@Base 1.7.0
 (optional=templinst)_ZNK6QGpgME7_detail16ThreadedJobMixinINS_11DownloadJobESt5tupleIJN5GpgME5ErrorE10QByteArray7QStringS5_EEE14auditLogAsHtmlEv@Base 1.7.0
 (optional=templinst)_ZNK6QGpgME7_detail16ThreadedJobMixinINS_12AddUserIDJobESt5tupleIJN5GpgME5ErrorE7QStringS5_EEE13auditLogErrorEv@Base 1.7.0
 (optional=templinst)_ZNK6QGpgME7_detail16ThreadedJobMixinINS_12AddUserIDJobESt5tupleIJN5GpgME5ErrorE7QStringS5_EEE14auditLogAsHtmlEv@Base 1.7.0
 (optional=templinst)_ZNK6QGpgME7_detail16ThreadedJobMixinINS_13TofuPolicyJobESt5tupleIJN5GpgME5ErrorE7QStringS5_EEE13auditLogErrorEv@Base 1.7.0
 (optional=templinst)_ZNK6QGpgME7_detail16ThreadedJobMixinINS_13TofuPolicyJobESt5tupleIJN5GpgME5ErrorE7QStringS5_EEE14auditLogAsHtmlEv@Base 1.7.0
 (optional=templinst)_ZNK6QGpgME7_detail16ThreadedJobMixinINS_13WKSPublishJobESt5tupleIJN5GpgME5ErrorE10QByteArrayS6_7QStringS5_EEE13auditLogErrorEv@Base 1.7.0
 (optional=templinst)_ZNK6QGpgME7_detail16ThreadedJobMixinINS_13WKSPublishJobESt5tupleIJN5GpgME5ErrorE10QByteArrayS6_7QStringS5_EEE14auditLogAsHtmlEv@Base 1.7.0
 (optional=templinst)_ZNK6QGpgME7_detail16ThreadedJobMixinINS_14ListAllKeysJobESt5tupleIJN5GpgME13KeyListResultESt6vectorINS4_3KeyESaIS7_EES9_7QStringNS4_5ErrorEEEE13auditLogErrorEv@Base 1.7.0
 (optional=templinst)_ZNK6QGpgME7_detail16ThreadedJobMixinINS_14ListAllKeysJobESt5tupleIJN5GpgME13KeyListResultESt6vectorINS4_3KeyESaIS7_EES9_7QStringNS4_5ErrorEEEE14auditLogAsHtmlEv@Base 1.7.0
 (optional=templinst)_ZNK6QGpgME7_detail16ThreadedJobMixinINS_14SignEncryptJobESt5tupleIJN5GpgME13SigningResultENS4_16EncryptionResultE10QByteArray7QStringNS4_5ErrorEEEE13auditLogErrorEv@Base 1.7.0
 (optional=templinst)_ZNK6QGpgME7_detail16ThreadedJobMixinINS_14SignEncryptJobESt5tupleIJN5GpgME13SigningResultENS4_16EncryptionResultE10QByteArray7QStringNS4_5ErrorEEEE14auditLogAsHtmlEv@Base 1.7.0
 (optional=templinst)_ZNK6QGpgME7_detail16ThreadedJobMixinINS_15ChangeExpiryJobESt5tupleIJN5GpgME5ErrorE7QStringS5_EEE13auditLogErrorEv@Base 1.7.0
 (optional=templinst)_ZNK6QGpgME7_detail16ThreadedJobMixinINS_15ChangeExpiryJobESt5tupleIJN5GpgME5ErrorE7QStringS5_EEE14auditLogAsHtmlEv@Base 1.7.0
 (optional=templinst)_ZNK6QGpgME7_detail16ThreadedJobMixinINS_15ChangePasswdJobESt5tupleIJN5GpgME5ErrorE7QStringS5_EEE13auditLogErrorEv@Base 1.7.0
 (optional=templinst)_ZNK6QGpgME7_detail16ThreadedJobMixinINS_15ChangePasswdJobESt5tupleIJN5GpgME5ErrorE7QStringS5_EEE14auditLogAsHtmlEv@Base 1.7.0
 (optional=templinst)_ZNK6QGpgME7_detail16ThreadedJobMixinINS_15VerifyOpaqueJobESt5tupleIJN5GpgME18VerificationResultE10QByteArray7QStringNS4_5ErrorEEEE13auditLogErrorEv@Base 1.7.0
 (optional=templinst)_ZNK6QGpgME7_detail16ThreadedJobMixinINS_15VerifyOpaqueJobESt5tupleIJN5GpgME18VerificationResultE10QByteArray7QStringNS4_5ErrorEEEE14auditLogAsHtmlEv@Base 1.7.0
 (optional=templinst)_ZNK6QGpgME7_detail16ThreadedJobMixinINS_16DecryptVerifyJobESt5tupleIJN5GpgME16DecryptionResultENS4_18VerificationResultE10QByteArray7QStringNS4_5ErrorEEEE13auditLogErrorEv@Base 1.7.0
 (optional=templinst)_ZNK6QGpgME7_detail16ThreadedJobMixinINS_16DecryptVerifyJobESt5tupleIJN5GpgME16DecryptionResultENS4_18VerificationResultE10QByteArray7QStringNS4_5ErrorEEEE14auditLogAsHtmlEv@Base 1.7.0
 (optional=templinst)_ZNK6QGpgME7_detail16ThreadedJobMixinINS_16KeyForMailboxJobESt5tupleIJN5GpgME13KeyListResultENS4_3KeyENS4_6UserIDE7QStringNS4_5ErrorEEEE13auditLogErrorEv@Base 1.7.0
 (optional=templinst)_ZNK6QGpgME7_detail16ThreadedJobMixinINS_16KeyForMailboxJobESt5tupleIJN5GpgME13KeyListResultENS4_3KeyENS4_6UserIDE7QStringNS4_5ErrorEEEE14auditLogAsHtmlEv@Base 1.7.0
 (optional=templinst)_ZNK6QGpgME7_detail16ThreadedJobMixinINS_16KeyGenerationJobESt5tupleIJN5GpgME19KeyGenerationResultE10QByteArray7QStringNS4_5ErrorEEEE13auditLogErrorEv@Base 1.7.0
 (optional=templinst)_ZNK6QGpgME7_detail16ThreadedJobMixinINS_16KeyGenerationJobESt5tupleIJN5GpgME19KeyGenerationResultE10QByteArray7QStringNS4_5ErrorEEEE14auditLogAsHtmlEv@Base 1.7.0
 (optional=templinst)_ZNK6QGpgME7_detail16ThreadedJobMixinINS_17VerifyDetachedJobESt5tupleIJN5GpgME18VerificationResultE7QStringNS4_5ErrorEEEE13auditLogErrorEv@Base 1.7.0
 (optional=templinst)_ZNK6QGpgME7_detail16ThreadedJobMixinINS_17VerifyDetachedJobESt5tupleIJN5GpgME18VerificationResultE7QStringNS4_5ErrorEEEE14auditLogAsHtmlEv@Base 1.7.0
 (optional=templinst)_ZNK6QGpgME7_detail16ThreadedJobMixinINS_19ChangeOwnerTrustJobESt5tupleIJN5GpgME5ErrorE7QStringS5_EEE13auditLogErrorEv@Base 1.7.0
 (optional=templinst)_ZNK6QGpgME7_detail16ThreadedJobMixinINS_19ChangeOwnerTrustJobESt5tupleIJN5GpgME5ErrorE7QStringS5_EEE14auditLogAsHtmlEv@Base 1.7.0
 (optional=templinst)_ZNK6QGpgME7_detail16ThreadedJobMixinINS_22ImportFromKeyserverJobESt5tupleIJN5GpgME12ImportResultE7QStringNS4_5ErrorEEEE13auditLogErrorEv@Base 1.7.0
 (optional=templinst)_ZNK6QGpgME7_detail16ThreadedJobMixinINS_22ImportFromKeyserverJobESt5tupleIJN5GpgME12ImportResultE7QStringNS4_5ErrorEEEE14auditLogAsHtmlEv@Base 1.7.0
 (optional=templinst)_ZNK6QGpgME7_detail16ThreadedJobMixinINS_7SignJobESt5tupleIJN5GpgME13SigningResultE10QByteArray7QStringNS4_5ErrorEEEE13auditLogErrorEv@Base 1.7.0
 (optional=templinst)_ZNK6QGpgME7_detail16ThreadedJobMixinINS_7SignJobESt5tupleIJN5GpgME13SigningResultE10QByteArray7QStringNS4_5ErrorEEEE14auditLogAsHtmlEv@Base 1.7.0
 (optional=templinst)_ZNK6QGpgME7_detail16ThreadedJobMixinINS_9DeleteJobESt5tupleIJN5GpgME5ErrorE7QStringS5_EEE13auditLogErrorEv@Base 1.7.0
 (optional=templinst)_ZNK6QGpgME7_detail16ThreadedJobMixinINS_9DeleteJobESt5tupleIJN5GpgME5ErrorE7QStringS5_EEE14auditLogAsHtmlEv@Base 1.7.0
 (optional=templinst)_ZNK6QGpgME7_detail16ThreadedJobMixinINS_9ExportJobESt5tupleIJN5GpgME5ErrorE10QByteArray7QStringS5_EEE13auditLogErrorEv@Base 1.7.0
 (optional=templinst)_ZNK6QGpgME7_detail16ThreadedJobMixinINS_9ExportJobESt5tupleIJN5GpgME5ErrorE10QByteArray7QStringS5_EEE14auditLogAsHtmlEv@Base 1.7.0
 (optional=templinst)_ZNK6QGpgME7_detail16ThreadedJobMixinINS_9ImportJobESt5tupleIJN5GpgME12ImportResultE7QStringNS4_5ErrorEEEE13auditLogErrorEv@Base 1.7.0
 (optional=templinst)_ZNK6QGpgME7_detail16ThreadedJobMixinINS_9ImportJobESt5tupleIJN5GpgME12ImportResultE7QStringNS4_5ErrorEEEE14auditLogAsHtmlEv@Base 1.7.0
 _ZNK6QGpgME9DeleteJob10metaObjectEv@Base 1.7.0
 _ZNK6QGpgME9ExportJob10metaObjectEv@Base 1.7.0
 _ZNK6QGpgME9ImportJob10metaObjectEv@Base 1.7.0
 (optional=templinst)_ZNSt11_Tuple_implILm0EJN5GpgME13KeyListResultESt6vectorINS0_3KeyESaIS3_EE7QStringNS0_5ErrorEEED1Ev@Base 1.7.0
 (optional=templinst)_ZNSt11_Tuple_implILm0EJN5GpgME13KeyListResultESt6vectorINS0_3KeyESaIS3_EE7QStringNS0_5ErrorEEED2Ev@Base 1.7.0
 (optional=templinst)_ZNSt11_Tuple_implILm0EJN5GpgME13SigningResultE10QByteArray7QStringNS0_5ErrorEEED1Ev@Base 1.7.0
 (optional=templinst)_ZNSt11_Tuple_implILm0EJN5GpgME13SigningResultE10QByteArray7QStringNS0_5ErrorEEED2Ev@Base 1.7.0
 (optional=templinst)_ZNSt11_Tuple_implILm0EJN5GpgME16DecryptionResultE10QByteArray7QStringNS0_5ErrorEEED1Ev@Base 1.7.0
 (optional=templinst)_ZNSt11_Tuple_implILm0EJN5GpgME16DecryptionResultE10QByteArray7QStringNS0_5ErrorEEED2Ev@Base 1.7.0
 (optional=templinst)_ZNSt11_Tuple_implILm0EJN5GpgME16EncryptionResultE10QByteArray7QStringNS0_5ErrorEEED1Ev@Base 1.7.0
 (optional=templinst)_ZNSt11_Tuple_implILm0EJN5GpgME16EncryptionResultE10QByteArray7QStringNS0_5ErrorEEED2Ev@Base 1.7.0
 (optional=templinst)_ZNSt11_Tuple_implILm0EJN5GpgME18VerificationResultE10QByteArray7QStringNS0_5ErrorEEED1Ev@Base 1.7.0
 (optional=templinst)_ZNSt11_Tuple_implILm0EJN5GpgME18VerificationResultE10QByteArray7QStringNS0_5ErrorEEED2Ev@Base 1.7.0
 (optional=templinst)_ZNSt11_Tuple_implILm0EJN5GpgME19KeyGenerationResultE10QByteArray7QStringNS0_5ErrorEEED1Ev@Base 1.7.0
 (optional=templinst)_ZNSt11_Tuple_implILm0EJN5GpgME19KeyGenerationResultE10QByteArray7QStringNS0_5ErrorEEED2Ev@Base 1.7.0
 (optional=templinst)_ZNSt11_Tuple_implILm0EJN5GpgME5ErrorE10QByteArray7QStringS1_EED1Ev@Base 1.7.0
 (optional=templinst)_ZNSt11_Tuple_implILm0EJN5GpgME5ErrorE10QByteArray7QStringS1_EED2Ev@Base 1.7.0
 (optional=templinst)_ZNSt11_Tuple_implILm0EJN5GpgME5ErrorE10QByteArrayS2_7QStringS1_EED1Ev@Base 1.7.0
 (optional=templinst)_ZNSt11_Tuple_implILm0EJN5GpgME5ErrorE10QByteArrayS2_7QStringS1_EED2Ev@Base 1.7.0
 (optional=templinst)_ZNSt11_Tuple_implILm0EJN5GpgME5ErrorE7QStringS1_EED1Ev@Base 1.7.0
 (optional=templinst)_ZNSt11_Tuple_implILm0EJN5GpgME5ErrorE7QStringS1_EED2Ev@Base 1.7.0
 (optional=templinst)_ZNSt11_Tuple_implILm1EJ10QByteArrayS0_7QStringN5GpgME5ErrorEEED1Ev@Base 1.7.0
 (optional=templinst)_ZNSt11_Tuple_implILm1EJ10QByteArrayS0_7QStringN5GpgME5ErrorEEED2Ev@Base 1.7.0
 (optional=templinst)_ZNSt11_Tuple_implILm1EJ7QStringN5GpgME5ErrorEEED1Ev@Base 1.7.0
 (optional=templinst)_ZNSt11_Tuple_implILm1EJ7QStringN5GpgME5ErrorEEED2Ev@Base 1.7.0
 (optional=templinst)_ZNSt11_Tuple_implILm1EJN5GpgME16EncryptionResultE10QByteArray7QStringNS0_5ErrorEEED1Ev@Base 1.7.0
 (optional=templinst)_ZNSt11_Tuple_implILm1EJN5GpgME16EncryptionResultE10QByteArray7QStringNS0_5ErrorEEED2Ev@Base 1.7.0
 (optional=templinst)_ZNSt11_Tuple_implILm1EJN5GpgME18VerificationResultE10QByteArray7QStringNS0_5ErrorEEED1Ev@Base 1.7.0
 (optional=templinst)_ZNSt11_Tuple_implILm1EJN5GpgME18VerificationResultE10QByteArray7QStringNS0_5ErrorEEED2Ev@Base 1.7.0
 (optional=templinst)_ZNSt11_Tuple_implILm1EJN5GpgME3KeyE7QStringS2_S2_EED1Ev@Base 1.7.0
 (optional=templinst)_ZNSt11_Tuple_implILm1EJN5GpgME3KeyE7QStringS2_S2_EED2Ev@Base 1.7.0
 (optional=templinst)_ZNSt11_Tuple_implILm1EJN5GpgME3KeyE9QDateTimeEED1Ev@Base 1.7.0
 (optional=templinst)_ZNSt11_Tuple_implILm1EJN5GpgME3KeyE9QDateTimeEED2Ev@Base 1.7.0
 (optional=templinst)_ZNSt11_Tuple_implILm1EJN5GpgME3KeyENS0_6UserIDE7QStringNS0_5ErrorEEED1Ev@Base 1.7.0
 (optional=templinst)_ZNSt11_Tuple_implILm1EJN5GpgME3KeyENS0_6UserIDE7QStringNS0_5ErrorEEED2Ev@Base 1.7.0
 (optional=templinst)_ZNSt11_Tuple_implILm1EJN5GpgME3KeyESt6vectorIjSaIjEEjS1_jEED1Ev@Base 1.7.0
 (optional=templinst)_ZNSt11_Tuple_implILm1EJN5GpgME3KeyESt6vectorIjSaIjEEjS1_jEED2Ev@Base 1.7.0
 (optional=templinst)_ZNSt11_Tuple_implILm1EJSt6vectorIN5GpgME3KeyESaIS2_EES4_10QByteArrayNS1_7Context15EncryptionFlagsEbEED1Ev@Base 1.7.0
 (optional=templinst)_ZNSt11_Tuple_implILm1EJSt6vectorIN5GpgME3KeyESaIS2_EES4_10QByteArrayNS1_7Context15EncryptionFlagsEbEED2Ev@Base 1.7.0
 (optional=templinst)_ZNSt11_Tuple_implILm1EJSt6vectorIN5GpgME3KeyESaIS2_EES4_7QStringNS1_5ErrorEEED1Ev@Base 1.7.0
 (optional=templinst)_ZNSt11_Tuple_implILm1EJSt6vectorIN5GpgME3KeyESaIS2_EES4_7QStringNS1_5ErrorEEED2Ev@Base 1.7.0
 (optional=templinst)_ZNSt11_Tuple_implILm2EJ7QStringN5GpgME5ErrorEEED1Ev@Base 1.7.0
 (optional=templinst)_ZNSt11_Tuple_implILm2EJ7QStringN5GpgME5ErrorEEED2Ev@Base 1.7.0
 (optional=templinst)_ZNSt11_Tuple_implILm2EJSt8weak_ptrI9QIODeviceES2_EED1Ev@Base 1.7.0
 (optional=templinst)_ZNSt11_Tuple_implILm2EJSt8weak_ptrI9QIODeviceES2_EED2Ev@Base 1.7.0
 (optional=templinst)_ZNSt11_Tuple_implILm3EJ7QStringN5GpgME5ErrorEEED1Ev@Base 1.7.0
 (optional=templinst)_ZNSt11_Tuple_implILm3EJ7QStringN5GpgME5ErrorEEED2Ev@Base 1.7.0
 (optional=templinst)_ZNSt14_Function_base13_Base_managerISt5_BindIFS1_IFPFSt5tupleIJN5GpgME12ImportResultE7QStringNS3_5ErrorEEEPNS3_7ContextERK10QByteArrayESt12_PlaceholderILi1EESA_EES9_EEE10_M_managerERSt9_Any_dataRKSM_St18_Manager_operation@Base 1.7.0
 (optional=templinst)_ZNSt14_Function_base13_Base_managerISt5_BindIFS1_IFPFSt5tupleIJN5GpgME12ImportResultE7QStringNS3_5ErrorEEEPNS3_7ContextERKSt6vectorINS3_3KeyESaISB_EEESt12_PlaceholderILi1EESD_EES9_EEE10_M_managerERSt9_Any_dataRKSP_St18_Manager_operation@Base 1.7.0
 (optional=templinst)_ZNSt14_Function_base13_Base_managerISt5_BindIFS1_IFPFSt5tupleIJN5GpgME13KeyListResultENS3_3KeyENS3_6UserIDE7QStringNS3_5ErrorEEEPNS3_7ContextERKS7_bESt12_PlaceholderILi1EES7_bEESB_EEE10_M_managerERSt9_Any_dataRKSN_St18_Manager_operation@Base 1.7.0
 (optional=templinst)_ZNSt14_Function_base13_Base_managerISt5_BindIFS1_IFPFSt5tupleIJN5GpgME13KeyListResultESt6vectorINS3_3KeyESaIS6_EE7QStringNS3_5ErrorEEEPNS3_7ContextE11QStringListbESt12_PlaceholderILi1EESE_bEESD_EEE10_M_managerERSt9_Any_dataRKSO_St18_Manager_operation@Base 1.7.0
 (optional=templinst)_ZNSt14_Function_base13_Base_managerISt5_BindIFS1_IFPFSt5tupleIJN5GpgME13KeyListResultESt6vectorINS3_3KeyESaIS6_EES8_7QStringNS3_5ErrorEEEPNS3_7ContextEbESt12_PlaceholderILi1EEbEESD_EEE10_M_managerERSt9_Any_dataRKSN_St18_Manager_operation@Base 1.7.0
 (optional=templinst)_ZNSt14_Function_base13_Base_managerISt5_BindIFS1_IFPFSt5tupleIJN5GpgME13SigningResultE10QByteArray7QStringNS3_5ErrorEEEPNS3_7ContextEP7QThreadRKSt6vectorINS3_3KeyESaISE_EERKSt8weak_ptrI9QIODeviceESN_NS3_13SignatureModeEbESt12_PlaceholderILi1EESR_ILi2EESG_SR_ILi3EESR_ILi4EESO_bEESA_SC_SL_SL_EEE10_M_managerERSt9_Any_dataRKS11_St18_Manager_operation@Base 1.7.0
 (optional=templinst)_ZNSt14_Function_base13_Base_managerISt5_BindIFS1_IFPFSt5tupleIJN5GpgME13SigningResultE10QByteArray7QStringNS3_5ErrorEEEPNS3_7ContextERKSt6vectorINS3_3KeyESaISC_EERKS5_NS3_13SignatureModeEbESt12_PlaceholderILi1EESE_S5_SJ_bEESA_EEE10_M_managerERSt9_Any_dataRKST_St18_Manager_operation@Base 1.7.0
 (optional=templinst)_ZNSt14_Function_base13_Base_managerISt5_BindIFS1_IFPFSt5tupleIJN5GpgME13SigningResultENS3_16EncryptionResultE10QByteArray7QStringNS3_5ErrorEEEPNS3_7ContextEP7QThreadRKSt6vectorINS3_3KeyESaISF_EESJ_RKSt8weak_ptrI9QIODeviceESO_NSA_15EncryptionFlagsEbESt12_PlaceholderILi1EESS_ILi2EESH_SH_SS_ILi3EESS_ILi4EESP_bEESB_SD_SM_SM_EEE10_M_managerERSt9_Any_dataRKS12_St18_Manager_operation@Base 1.7.0
 (optional=templinst)_ZNSt14_Function_base13_Base_managerISt5_BindIFS1_IFPFSt5tupleIJN5GpgME13SigningResultENS3_16EncryptionResultE10QByteArray7QStringNS3_5ErrorEEEPNS3_7ContextERKSt6vectorINS3_3KeyESaISD_EESH_RKS6_NSA_15EncryptionFlagsEbESt12_PlaceholderILi1EESF_SF_S6_SK_bEESB_EEE10_M_managerERSt9_Any_dataRKSU_St18_Manager_operation@Base 1.7.0
 (optional=templinst)_ZNSt14_Function_base13_Base_managerISt5_BindIFS1_IFPFSt5tupleIJN5GpgME16DecryptionResultE10QByteArray7QStringNS3_5ErrorEEEPNS3_7ContextEP7QThreadRKSt8weak_ptrI9QIODeviceESH_ESt12_PlaceholderILi1EESK_ILi2EESK_ILi3EESK_ILi4EEEESA_SC_SF_SF_EEE10_M_managerERSt9_Any_dataRKSU_St18_Manager_operation@Base 1.7.0
 (optional=templinst)_ZNSt14_Function_base13_Base_managerISt5_BindIFS1_IFPFSt5tupleIJN5GpgME16DecryptionResultE10QByteArray7QStringNS3_5ErrorEEEPNS3_7ContextERKS5_ESt12_PlaceholderILi1EES5_EESA_EEE10_M_managerERSt9_Any_dataRKSM_St18_Manager_operation@Base 1.7.0
 (optional=templinst)_ZNSt14_Function_base13_Base_managerISt5_BindIFS1_IFPFSt5tupleIJN5GpgME16DecryptionResultENS3_18VerificationResultE10QByteArray7QStringNS3_5ErrorEEEPNS3_7ContextEP7QThreadRKSt8weak_ptrI9QIODeviceESI_ESt12_PlaceholderILi1EESL_ILi2EESL_ILi3EESL_ILi4EEEESB_SD_SG_SG_EEE10_M_managerERSt9_Any_dataRKSV_St18_Manager_operation@Base 1.7.0
 (optional=templinst)_ZNSt14_Function_base13_Base_managerISt5_BindIFS1_IFPFSt5tupleIJN5GpgME16DecryptionResultENS3_18VerificationResultE10QByteArray7QStringNS3_5ErrorEEEPNS3_7ContextERKS6_ESt12_PlaceholderILi1EES6_EESB_EEE10_M_managerERSt9_Any_dataRKSN_St18_Manager_operation@Base 1.7.0
 (optional=templinst)_ZNSt14_Function_base13_Base_managerISt5_BindIFS1_IFPFSt5tupleIJN5GpgME16EncryptionResultE10QByteArray7QStringNS3_5ErrorEEEPNS3_7ContextEP7QThreadRKSt6vectorINS3_3KeyESaISE_EERKSt8weak_ptrI9QIODeviceESN_NS9_15EncryptionFlagsEbESt12_PlaceholderILi1EESR_ILi2EESG_SR_ILi3EESR_ILi4EESO_bEESA_SC_SL_SL_EEE10_M_managerERSt9_Any_dataRKS11_St18_Manager_operation@Base 1.7.0
 (optional=templinst)_ZNSt14_Function_base13_Base_managerISt5_BindIFS1_IFPFSt5tupleIJN5GpgME16EncryptionResultE10QByteArray7QStringNS3_5ErrorEEEPNS3_7ContextERKSt6vectorINS3_3KeyESaISC_EERKS5_NS9_15EncryptionFlagsEbESt12_PlaceholderILi1EESE_S5_SJ_bEESA_EEE10_M_managerERSt9_Any_dataRKST_St18_Manager_operation@Base 1.7.0
 (optional=templinst)_ZNSt14_Function_base13_Base_managerISt5_BindIFS1_IFPFSt5tupleIJN5GpgME18VerificationResultE10QByteArray7QStringNS3_5ErrorEEEPNS3_7ContextEP7QThreadRKSt8weak_ptrI9QIODeviceESH_ESt12_PlaceholderILi1EESK_ILi2EESK_ILi3EESK_ILi4EEEESA_SC_SF_SF_EEE10_M_managerERSt9_Any_dataRKSU_St18_Manager_operation@Base 1.7.0
 (optional=templinst)_ZNSt14_Function_base13_Base_managerISt5_BindIFS1_IFPFSt5tupleIJN5GpgME18VerificationResultE10QByteArray7QStringNS3_5ErrorEEEPNS3_7ContextERKS5_ESt12_PlaceholderILi1EES5_EESA_EEE10_M_managerERSt9_Any_dataRKSM_St18_Manager_operation@Base 1.7.0
 (optional=templinst)_ZNSt14_Function_base13_Base_managerISt5_BindIFS1_IFPFSt5tupleIJN5GpgME18VerificationResultE7QStringNS3_5ErrorEEEPNS3_7ContextEP7QThreadRKSt8weak_ptrI9QIODeviceESG_ESt12_PlaceholderILi1EESJ_ILi2EESJ_ILi3EESJ_ILi4EEEES9_SB_SE_SE_EEE10_M_managerERSt9_Any_dataRKST_St18_Manager_operation@Base 1.7.0
 (optional=templinst)_ZNSt14_Function_base13_Base_managerISt5_BindIFS1_IFPFSt5tupleIJN5GpgME18VerificationResultE7QStringNS3_5ErrorEEEPNS3_7ContextERK10QByteArraySC_ESt12_PlaceholderILi1EESA_SA_EES9_EEE10_M_managerERSt9_Any_dataRKSM_St18_Manager_operation@Base 1.7.0
 (optional=templinst)_ZNSt14_Function_base13_Base_managerISt5_BindIFS1_IFPFSt5tupleIJN5GpgME19KeyGenerationResultE10QByteArray7QStringNS3_5ErrorEEEPNS3_7ContextERKS6_ESt12_PlaceholderILi1EES6_EESA_EEE10_M_managerERSt9_Any_dataRKSM_St18_Manager_operation@Base 1.7.0
 (optional=templinst)_ZNSt14_Function_base13_Base_managerISt5_BindIFS1_IFPFSt5tupleIJN5GpgME5ErrorE10QByteArray7QStringS4_EEPNS3_7ContextEP7QThreadRKS5_RKSt8weak_ptrI9QIODeviceEESt12_PlaceholderILi1EESL_ILi2EES5_SL_ILi3EEEES9_SB_SG_EEE10_M_managerERSt9_Any_dataRKSU_St18_Manager_operation@Base 1.7.0
 (optional=templinst)_ZNSt14_Function_base13_Base_managerISt5_BindIFS1_IFPFSt5tupleIJN5GpgME5ErrorE10QByteArray7QStringS4_EEPNS3_7ContextERK11QStringListESt12_PlaceholderILi1EESA_EES9_EEE10_M_managerERSt9_Any_dataRKSM_St18_Manager_operation@Base 1.7.0
 (optional=templinst)_ZNSt14_Function_base13_Base_managerISt5_BindIFS1_IFPFSt5tupleIJN5GpgME5ErrorE10QByteArrayS5_7QStringS4_EEPKcRKS6_ES9_S6_EEPNS3_7ContextEEEE10_M_managerERSt9_Any_dataRKSL_St18_Manager_operation@Base 1.7.0
 (optional=templinst)_ZNSt14_Function_base13_Base_managerISt5_BindIFS1_IFPFSt5tupleIJN5GpgME5ErrorE10QByteArrayS5_7QStringS4_EERKS5_ES5_EEPNS3_7ContextEEEE10_M_managerERSt9_Any_dataRKSJ_St18_Manager_operation@Base 1.7.0
 (optional=templinst)_ZNSt14_Function_base13_Base_managerISt5_BindIFS1_IFPFSt5tupleIJN5GpgME5ErrorE10QByteArrayS5_7QStringS4_EERKS6_ES6_EEPNS3_7ContextEEEE10_M_managerERSt9_Any_dataRKSJ_St18_Manager_operation@Base 1.7.0
 (optional=templinst)_ZNSt14_Function_base13_Base_managerISt5_BindIFS1_IFPFSt5tupleIJN5GpgME5ErrorE7QStringS4_EEPNS3_7ContextERKNS3_3KeyEESt12_PlaceholderILi1EES9_EES8_EEE10_M_managerERSt9_Any_dataRKSL_St18_Manager_operation@Base 1.7.0
 (optional=templinst)_ZNSt14_Function_base13_Base_managerISt5_BindIFS1_IFPFSt5tupleIJN5GpgME5ErrorE7QStringS4_EEPNS3_7ContextERKNS3_3KeyENS3_8TofuInfo6PolicyEESt12_PlaceholderILi1EES9_SD_EES8_EEE10_M_managerERSt9_Any_dataRKSN_St18_Manager_operation@Base 1.7.0
 (optional=templinst)_ZNSt14_Function_base13_Base_managerISt5_BindIFS1_IFPFSt5tupleIJN5GpgME5ErrorE7QStringS4_EEPNS3_7ContextERKNS3_3KeyENS9_10OwnerTrustEESt12_PlaceholderILi1EES9_SC_EES8_EEE10_M_managerERSt9_Any_dataRKSM_St18_Manager_operation@Base 1.7.0
 (optional=templinst)_ZNSt14_Function_base13_Base_managerISt5_BindIFS1_IFPFSt5tupleIJN5GpgME5ErrorE7QStringS4_EEPNS3_7ContextERKNS3_3KeyERK9QDateTimeESt12_PlaceholderILi1EES9_SC_EES8_EEE10_M_managerERSt9_Any_dataRKSO_St18_Manager_operation@Base 1.7.0
 (optional=templinst)_ZNSt14_Function_base13_Base_managerISt5_BindIFS1_IFPFSt5tupleIJN5GpgME5ErrorE7QStringS4_EEPNS3_7ContextERKNS3_3KeyERKS5_SD_SD_ESt12_PlaceholderILi1EES9_S5_S5_S5_EES8_EEE10_M_managerERSt9_Any_dataRKSN_St18_Manager_operation@Base 1.7.0
 (optional=templinst)_ZNSt14_Function_base13_Base_managerISt5_BindIFS1_IFPFSt5tupleIJN5GpgME5ErrorE7QStringS4_EEPNS3_7ContextERKNS3_3KeyERKSt6vectorIjSaIjEEjSB_jESt12_PlaceholderILi1EES9_SE_jS9_jEES8_EEE10_M_managerERSt9_Any_dataRKSQ_St18_Manager_operation@Base 1.7.0
 (optional=templinst)_ZNSt14_Function_base13_Base_managerISt5_BindIFS1_IFPFSt5tupleIJN5GpgME5ErrorE7QStringS4_EEPNS3_7ContextERKNS3_3KeyEbESt12_PlaceholderILi1EES9_bEES8_EEE10_M_managerERSt9_Any_dataRKSL_St18_Manager_operation@Base 1.7.0
 (optional=templinst)_ZNSt15_Sp_counted_ptrIDnLN9__gnu_cxx12_Lock_policyE2EE10_M_disposeEv@Base 1.7.0
 (optional=templinst)_ZNSt15_Sp_counted_ptrIP26QGpgMENewCryptoConfigEntryLN9__gnu_cxx12_Lock_policyE2EE10_M_destroyEv@Base 1.7.0
 (optional=templinst)_ZNSt15_Sp_counted_ptrIP26QGpgMENewCryptoConfigEntryLN9__gnu_cxx12_Lock_policyE2EE10_M_disposeEv@Base 1.7.0
 (optional=templinst)_ZNSt15_Sp_counted_ptrIP26QGpgMENewCryptoConfigEntryLN9__gnu_cxx12_Lock_policyE2EE14_M_get_deleterERKSt9type_info@Base 1.7.0
 (optional=templinst)_ZNSt15_Sp_counted_ptrIP26QGpgMENewCryptoConfigEntryLN9__gnu_cxx12_Lock_policyE2EED0Ev@Base 1.7.0
 (optional=templinst)_ZNSt15_Sp_counted_ptrIP26QGpgMENewCryptoConfigEntryLN9__gnu_cxx12_Lock_policyE2EED1Ev@Base 1.7.0
 (optional=templinst)_ZNSt15_Sp_counted_ptrIP26QGpgMENewCryptoConfigEntryLN9__gnu_cxx12_Lock_policyE2EED2Ev@Base 1.7.0
 (optional=templinst)_ZNSt15_Sp_counted_ptrIP26QGpgMENewCryptoConfigGroupLN9__gnu_cxx12_Lock_policyE2EE10_M_destroyEv@Base 1.7.0
 (optional=templinst)_ZNSt15_Sp_counted_ptrIP26QGpgMENewCryptoConfigGroupLN9__gnu_cxx12_Lock_policyE2EE10_M_disposeEv@Base 1.7.0
 (optional=templinst)_ZNSt15_Sp_counted_ptrIP26QGpgMENewCryptoConfigGroupLN9__gnu_cxx12_Lock_policyE2EE14_M_get_deleterERKSt9type_info@Base 1.7.0
 (optional=templinst)_ZNSt15_Sp_counted_ptrIP26QGpgMENewCryptoConfigGroupLN9__gnu_cxx12_Lock_policyE2EED0Ev@Base 1.7.0
 (optional=templinst)_ZNSt15_Sp_counted_ptrIP26QGpgMENewCryptoConfigGroupLN9__gnu_cxx12_Lock_policyE2EED1Ev@Base 1.7.0
 (optional=templinst)_ZNSt15_Sp_counted_ptrIP26QGpgMENewCryptoConfigGroupLN9__gnu_cxx12_Lock_policyE2EED2Ev@Base 1.7.0
 (optional=templinst)_ZNSt15_Sp_counted_ptrIP30QGpgMENewCryptoConfigComponentLN9__gnu_cxx12_Lock_policyE2EE10_M_destroyEv@Base 1.7.0
 (optional=templinst)_ZNSt15_Sp_counted_ptrIP30QGpgMENewCryptoConfigComponentLN9__gnu_cxx12_Lock_policyE2EE10_M_disposeEv@Base 1.7.0
 (optional=templinst)_ZNSt15_Sp_counted_ptrIP30QGpgMENewCryptoConfigComponentLN9__gnu_cxx12_Lock_policyE2EE14_M_get_deleterERKSt9type_info@Base 1.7.0
 (optional=templinst)_ZNSt15_Sp_counted_ptrIP30QGpgMENewCryptoConfigComponentLN9__gnu_cxx12_Lock_policyE2EED0Ev@Base 1.7.0
 (optional=templinst)_ZNSt15_Sp_counted_ptrIP30QGpgMENewCryptoConfigComponentLN9__gnu_cxx12_Lock_policyE2EED1Ev@Base 1.7.0
 (optional=templinst)_ZNSt15_Sp_counted_ptrIP30QGpgMENewCryptoConfigComponentLN9__gnu_cxx12_Lock_policyE2EED2Ev@Base 1.7.0
 (optional=templinst)_ZNSt15_Sp_counted_ptrIP7QBufferLN9__gnu_cxx12_Lock_policyE2EE10_M_destroyEv@Base 1.7.0
 (optional=templinst)_ZNSt15_Sp_counted_ptrIP7QBufferLN9__gnu_cxx12_Lock_policyE2EE10_M_disposeEv@Base 1.7.0
 (optional=templinst)_ZNSt15_Sp_counted_ptrIP7QBufferLN9__gnu_cxx12_Lock_policyE2EE14_M_get_deleterERKSt9type_info@Base 1.7.0
 (optional=templinst)_ZNSt15_Sp_counted_ptrIP7QBufferLN9__gnu_cxx12_Lock_policyE2EED0Ev@Base 1.7.0
 (optional=templinst)_ZNSt15_Sp_counted_ptrIP7QBufferLN9__gnu_cxx12_Lock_policyE2EED1Ev@Base 1.7.0
 (optional=templinst)_ZNSt15_Sp_counted_ptrIP7QBufferLN9__gnu_cxx12_Lock_policyE2EED2Ev@Base 1.7.0
 (optional=templinst)_ZNSt15_Sp_counted_ptrIPN5GpgME7ContextELN9__gnu_cxx12_Lock_policyE2EE10_M_destroyEv@Base 1.7.0
 (optional=templinst)_ZNSt15_Sp_counted_ptrIPN5GpgME7ContextELN9__gnu_cxx12_Lock_policyE2EE10_M_disposeEv@Base 1.7.0
 (optional=templinst)_ZNSt15_Sp_counted_ptrIPN5GpgME7ContextELN9__gnu_cxx12_Lock_policyE2EE14_M_get_deleterERKSt9type_info@Base 1.7.0
 (optional=templinst)_ZNSt15_Sp_counted_ptrIPN5GpgME7ContextELN9__gnu_cxx12_Lock_policyE2EED0Ev@Base 1.7.0
 (optional=templinst)_ZNSt15_Sp_counted_ptrIPN5GpgME7ContextELN9__gnu_cxx12_Lock_policyE2EED1Ev@Base 1.7.0
 (optional=templinst)_ZNSt15_Sp_counted_ptrIPN5GpgME7ContextELN9__gnu_cxx12_Lock_policyE2EED2Ev@Base 1.7.0
 (optional=templinst)_ZNSt16_Sp_counted_baseILN9__gnu_cxx12_Lock_policyE2EE10_M_destroyEv@Base 1.7.0
 (optional=templinst)_ZNSt16_Sp_counted_baseILN9__gnu_cxx12_Lock_policyE2EE10_M_releaseEv@Base 1.7.0
 (optional=templinst)_ZNSt16_Sp_counted_baseILN9__gnu_cxx12_Lock_policyE2EE15_M_weak_releaseEv@Base 1.7.0
 (optional=templinst)_ZNSt17_Function_handlerIFSt5tupleIJN5GpgME12ImportResultE7QStringNS1_5ErrorEEEvESt5_BindIFS7_IFPFS5_PNS1_7ContextERK10QByteArrayESt12_PlaceholderILi1EESA_EES9_EEE9_M_invokeERKSt9_Any_data@Base 1.7.0
 (optional=templinst)_ZNSt17_Function_handlerIFSt5tupleIJN5GpgME12ImportResultE7QStringNS1_5ErrorEEEvESt5_BindIFS7_IFPFS5_PNS1_7ContextERKSt6vectorINS1_3KeyESaISB_EEESt12_PlaceholderILi1EESD_EES9_EEE9_M_invokeERKSt9_Any_data@Base 1.7.0
 (optional=templinst)_ZNSt17_Function_handlerIFSt5tupleIJN5GpgME13KeyListResultENS1_3KeyENS1_6UserIDE7QStringNS1_5ErrorEEEvESt5_BindIFS9_IFPFS7_PNS1_7ContextERKS5_bESt12_PlaceholderILi1EES5_bEESB_EEE9_M_invokeERKSt9_Any_data@Base 1.7.0
 (optional=templinst)_ZNSt17_Function_handlerIFSt5tupleIJN5GpgME13KeyListResultESt6vectorINS1_3KeyESaIS4_EE7QStringNS1_5ErrorEEEvESt5_BindIFSB_IFPFS9_PNS1_7ContextE11QStringListbESt12_PlaceholderILi1EESE_bEESD_EEE9_M_invokeERKSt9_Any_data@Base 1.7.0
 (optional=templinst)_ZNSt17_Function_handlerIFSt5tupleIJN5GpgME13KeyListResultESt6vectorINS1_3KeyESaIS4_EES6_7QStringNS1_5ErrorEEEvESt5_BindIFSB_IFPFS9_PNS1_7ContextEbESt12_PlaceholderILi1EEbEESD_EEE9_M_invokeERKSt9_Any_data@Base 1.7.0
 (optional=templinst)_ZNSt17_Function_handlerIFSt5tupleIJN5GpgME13SigningResultE10QByteArray7QStringNS1_5ErrorEEEvESt5_BindIFS8_IFPFS6_PNS1_7ContextEP7QThreadRKSt6vectorINS1_3KeyESaISE_EERKSt8weak_ptrI9QIODeviceESN_NS1_13SignatureModeEbESt12_PlaceholderILi1EESR_ILi2EESG_SR_ILi3EESR_ILi4EESO_bEESA_SC_SL_SL_EEE9_M_invokeERKSt9_Any_data@Base 1.7.0
 (optional=templinst)_ZNSt17_Function_handlerIFSt5tupleIJN5GpgME13SigningResultE10QByteArray7QStringNS1_5ErrorEEEvESt5_BindIFS8_IFPFS6_PNS1_7ContextERKSt6vectorINS1_3KeyESaISC_EERKS3_NS1_13SignatureModeEbESt12_PlaceholderILi1EESE_S3_SJ_bEESA_EEE9_M_invokeERKSt9_Any_data@Base 1.7.0
 (optional=templinst)_ZNSt17_Function_handlerIFSt5tupleIJN5GpgME13SigningResultENS1_16EncryptionResultE10QByteArray7QStringNS1_5ErrorEEEvESt5_BindIFS9_IFPFS7_PNS1_7ContextEP7QThreadRKSt6vectorINS1_3KeyESaISF_EESJ_RKSt8weak_ptrI9QIODeviceESO_NSA_15EncryptionFlagsEbESt12_PlaceholderILi1EESS_ILi2EESH_SH_SS_ILi3EESS_ILi4EESP_bEESB_SD_SM_SM_EEE9_M_invokeERKSt9_Any_data@Base 1.7.0
 (optional=templinst)_ZNSt17_Function_handlerIFSt5tupleIJN5GpgME13SigningResultENS1_16EncryptionResultE10QByteArray7QStringNS1_5ErrorEEEvESt5_BindIFS9_IFPFS7_PNS1_7ContextERKSt6vectorINS1_3KeyESaISD_EESH_RKS4_NSA_15EncryptionFlagsEbESt12_PlaceholderILi1EESF_SF_S4_SK_bEESB_EEE9_M_invokeERKSt9_Any_data@Base 1.7.0
 (optional=templinst)_ZNSt17_Function_handlerIFSt5tupleIJN5GpgME16DecryptionResultE10QByteArray7QStringNS1_5ErrorEEEvESt5_BindIFS8_IFPFS6_PNS1_7ContextEP7QThreadRKSt8weak_ptrI9QIODeviceESH_ESt12_PlaceholderILi1EESK_ILi2EESK_ILi3EESK_ILi4EEEESA_SC_SF_SF_EEE9_M_invokeERKSt9_Any_data@Base 1.7.0
 (optional=templinst)_ZNSt17_Function_handlerIFSt5tupleIJN5GpgME16DecryptionResultE10QByteArray7QStringNS1_5ErrorEEEvESt5_BindIFS8_IFPFS6_PNS1_7ContextERKS3_ESt12_PlaceholderILi1EES3_EESA_EEE9_M_invokeERKSt9_Any_data@Base 1.7.0
 (optional=templinst)_ZNSt17_Function_handlerIFSt5tupleIJN5GpgME16DecryptionResultENS1_18VerificationResultE10QByteArray7QStringNS1_5ErrorEEEvESt5_BindIFS9_IFPFS7_PNS1_7ContextEP7QThreadRKSt8weak_ptrI9QIODeviceESI_ESt12_PlaceholderILi1EESL_ILi2EESL_ILi3EESL_ILi4EEEESB_SD_SG_SG_EEE9_M_invokeERKSt9_Any_data@Base 1.7.0
 (optional=templinst)_ZNSt17_Function_handlerIFSt5tupleIJN5GpgME16DecryptionResultENS1_18VerificationResultE10QByteArray7QStringNS1_5ErrorEEEvESt5_BindIFS9_IFPFS7_PNS1_7ContextERKS4_ESt12_PlaceholderILi1EES4_EESB_EEE9_M_invokeERKSt9_Any_data@Base 1.7.0
 (optional=templinst)_ZNSt17_Function_handlerIFSt5tupleIJN5GpgME16EncryptionResultE10QByteArray7QStringNS1_5ErrorEEEvESt5_BindIFS8_IFPFS6_PNS1_7ContextEP7QThreadRKSt6vectorINS1_3KeyESaISE_EERKSt8weak_ptrI9QIODeviceESN_NS9_15EncryptionFlagsEbESt12_PlaceholderILi1EESR_ILi2EESG_SR_ILi3EESR_ILi4EESO_bEESA_SC_SL_SL_EEE9_M_invokeERKSt9_Any_data@Base 1.7.0
 (optional=templinst)_ZNSt17_Function_handlerIFSt5tupleIJN5GpgME16EncryptionResultE10QByteArray7QStringNS1_5ErrorEEEvESt5_BindIFS8_IFPFS6_PNS1_7ContextERKSt6vectorINS1_3KeyESaISC_EERKS3_NS9_15EncryptionFlagsEbESt12_PlaceholderILi1EESE_S3_SJ_bEESA_EEE9_M_invokeERKSt9_Any_data@Base 1.7.0
 (optional=templinst)_ZNSt17_Function_handlerIFSt5tupleIJN5GpgME18VerificationResultE10QByteArray7QStringNS1_5ErrorEEEvESt5_BindIFS8_IFPFS6_PNS1_7ContextEP7QThreadRKSt8weak_ptrI9QIODeviceESH_ESt12_PlaceholderILi1EESK_ILi2EESK_ILi3EESK_ILi4EEEESA_SC_SF_SF_EEE9_M_invokeERKSt9_Any_data@Base 1.7.0
 (optional=templinst)_ZNSt17_Function_handlerIFSt5tupleIJN5GpgME18VerificationResultE10QByteArray7QStringNS1_5ErrorEEEvESt5_BindIFS8_IFPFS6_PNS1_7ContextERKS3_ESt12_PlaceholderILi1EES3_EESA_EEE9_M_invokeERKSt9_Any_data@Base 1.7.0
 (optional=templinst)_ZNSt17_Function_handlerIFSt5tupleIJN5GpgME18VerificationResultE7QStringNS1_5ErrorEEEvESt5_BindIFS7_IFPFS5_PNS1_7ContextEP7QThreadRKSt8weak_ptrI9QIODeviceESG_ESt12_PlaceholderILi1EESJ_ILi2EESJ_ILi3EESJ_ILi4EEEES9_SB_SE_SE_EEE9_M_invokeERKSt9_Any_data@Base 1.7.0
 (optional=templinst)_ZNSt17_Function_handlerIFSt5tupleIJN5GpgME18VerificationResultE7QStringNS1_5ErrorEEEvESt5_BindIFS7_IFPFS5_PNS1_7ContextERK10QByteArraySC_ESt12_PlaceholderILi1EESA_SA_EES9_EEE9_M_invokeERKSt9_Any_data@Base 1.7.0
 (optional=templinst)_ZNSt17_Function_handlerIFSt5tupleIJN5GpgME19KeyGenerationResultE10QByteArray7QStringNS1_5ErrorEEEvESt5_BindIFS8_IFPFS6_PNS1_7ContextERKS4_ESt12_PlaceholderILi1EES4_EESA_EEE9_M_invokeERKSt9_Any_data@Base 1.7.0
 (optional=templinst)_ZNSt17_Function_handlerIFSt5tupleIJN5GpgME5ErrorE10QByteArray7QStringS2_EEvESt5_BindIFS7_IFPFS5_PNS1_7ContextEP7QThreadRKS3_RKSt8weak_ptrI9QIODeviceEESt12_PlaceholderILi1EESL_ILi2EES3_SL_ILi3EEEES9_SB_SG_EEE9_M_invokeERKSt9_Any_data@Base 1.7.0
 (optional=templinst)_ZNSt17_Function_handlerIFSt5tupleIJN5GpgME5ErrorE10QByteArray7QStringS2_EEvESt5_BindIFS7_IFPFS5_PNS1_7ContextERK11QStringListESt12_PlaceholderILi1EESA_EES9_EEE9_M_invokeERKSt9_Any_data@Base 1.7.0
 (optional=templinst)_ZNSt17_Function_handlerIFSt5tupleIJN5GpgME5ErrorE10QByteArrayS3_7QStringS2_EEvESt5_BindIFS7_IFPFS5_PKcRKS4_ES9_S4_EEPNS1_7ContextEEEE9_M_invokeERKSt9_Any_data@Base 1.7.0
 (optional=templinst)_ZNSt17_Function_handlerIFSt5tupleIJN5GpgME5ErrorE10QByteArrayS3_7QStringS2_EEvESt5_BindIFS7_IFPFS5_RKS3_ES3_EEPNS1_7ContextEEEE9_M_invokeERKSt9_Any_data@Base 1.7.0
 (optional=templinst)_ZNSt17_Function_handlerIFSt5tupleIJN5GpgME5ErrorE10QByteArrayS3_7QStringS2_EEvESt5_BindIFS7_IFPFS5_RKS4_ES4_EEPNS1_7ContextEEEE9_M_invokeERKSt9_Any_data@Base 1.7.0
 (optional=templinst)_ZNSt17_Function_handlerIFSt5tupleIJN5GpgME5ErrorE7QStringS2_EEvESt5_BindIFS6_IFPFS4_PNS1_7ContextERKNS1_3KeyEESt12_PlaceholderILi1EES9_EES8_EEE9_M_invokeERKSt9_Any_data@Base 1.7.0
 (optional=templinst)_ZNSt17_Function_handlerIFSt5tupleIJN5GpgME5ErrorE7QStringS2_EEvESt5_BindIFS6_IFPFS4_PNS1_7ContextERKNS1_3KeyENS1_8TofuInfo6PolicyEESt12_PlaceholderILi1EES9_SD_EES8_EEE9_M_invokeERKSt9_Any_data@Base 1.7.0
 (optional=templinst)_ZNSt17_Function_handlerIFSt5tupleIJN5GpgME5ErrorE7QStringS2_EEvESt5_BindIFS6_IFPFS4_PNS1_7ContextERKNS1_3KeyENS9_10OwnerTrustEESt12_PlaceholderILi1EES9_SC_EES8_EEE9_M_invokeERKSt9_Any_data@Base 1.7.0
 (optional=templinst)_ZNSt17_Function_handlerIFSt5tupleIJN5GpgME5ErrorE7QStringS2_EEvESt5_BindIFS6_IFPFS4_PNS1_7ContextERKNS1_3KeyERK9QDateTimeESt12_PlaceholderILi1EES9_SC_EES8_EEE9_M_invokeERKSt9_Any_data@Base 1.7.0
 (optional=templinst)_ZNSt17_Function_handlerIFSt5tupleIJN5GpgME5ErrorE7QStringS2_EEvESt5_BindIFS6_IFPFS4_PNS1_7ContextERKNS1_3KeyERKS3_SD_SD_ESt12_PlaceholderILi1EES9_S3_S3_S3_EES8_EEE9_M_invokeERKSt9_Any_data@Base 1.7.0
 (optional=templinst)_ZNSt17_Function_handlerIFSt5tupleIJN5GpgME5ErrorE7QStringS2_EEvESt5_BindIFS6_IFPFS4_PNS1_7ContextERKNS1_3KeyERKSt6vectorIjSaIjEEjSB_jESt12_PlaceholderILi1EES9_SE_jS9_jEES8_EEE9_M_invokeERKSt9_Any_data@Base 1.7.0
 (optional=templinst)_ZNSt17_Function_handlerIFSt5tupleIJN5GpgME5ErrorE7QStringS2_EEvESt5_BindIFS6_IFPFS4_PNS1_7ContextERKNS1_3KeyEbESt12_PlaceholderILi1EES9_bEES8_EEE9_M_invokeERKSt9_Any_data@Base 1.7.0
 (optional=templinst)_ZNSt5_BindIFS_IFPFSt5tupleIJN5GpgME13SigningResultENS1_16EncryptionResultE10QByteArray7QStringNS1_5ErrorEEEPNS1_7ContextEP7QThreadRKSt6vectorINS1_3KeyESaISD_EESH_RKSt8weak_ptrI9QIODeviceESM_NS8_15EncryptionFlagsEbESt12_PlaceholderILi1EESQ_ILi2EESF_SF_SQ_ILi3EESQ_ILi4EESN_bEES9_SB_SK_SK_EED1Ev@Base 1.7.0
 (optional=templinst)_ZNSt5_BindIFS_IFPFSt5tupleIJN5GpgME13SigningResultENS1_16EncryptionResultE10QByteArray7QStringNS1_5ErrorEEEPNS1_7ContextEP7QThreadRKSt6vectorINS1_3KeyESaISD_EESH_RKSt8weak_ptrI9QIODeviceESM_NS8_15EncryptionFlagsEbESt12_PlaceholderILi1EESQ_ILi2EESF_SF_SQ_ILi3EESQ_ILi4EESN_bEES9_SB_SK_SK_EED2Ev@Base 1.7.0
 (optional=templinst)_ZNSt5_BindIFS_IFPFSt5tupleIJN5GpgME5ErrorE10QByteArray7QStringS2_EEPNS1_7ContextEP7QThreadRKS3_RKSt8weak_ptrI9QIODeviceEESt12_PlaceholderILi1EESJ_ILi2EES3_SJ_ILi3EEEES7_S9_SE_EED1Ev@Base 1.7.0
 (optional=templinst)_ZNSt5_BindIFS_IFPFSt5tupleIJN5GpgME5ErrorE10QByteArray7QStringS2_EEPNS1_7ContextEP7QThreadRKS3_RKSt8weak_ptrI9QIODeviceEESt12_PlaceholderILi1EESJ_ILi2EES3_SJ_ILi3EEEES7_S9_SE_EED2Ev@Base 1.7.0
 (optional=templinst)_ZNSt6vectorIN5GpgME13Configuration6OptionESaIS2_EED1Ev@Base 1.7.0
 (optional=templinst)_ZNSt6vectorIN5GpgME13Configuration6OptionESaIS2_EED2Ev@Base 1.7.0
 (optional=templinst)_ZNSt6vectorIN5GpgME13Configuration9ComponentESaIS2_EED1Ev@Base 1.7.0
 (optional=templinst)_ZNSt6vectorIN5GpgME13Configuration9ComponentESaIS2_EED2Ev@Base 1.7.0
 (optional=templinst)_ZNSt6vectorIN5GpgME3KeyESaIS1_EE19_M_emplace_back_auxIJRKS1_EEEvDpOT_@Base 1.7.0
 (optional=templinst)_ZNSt6vectorIN5GpgME3KeyESaIS1_EE19_M_emplace_back_auxIJS1_EEEvDpOT_@Base 1.7.0
 (optional=templinst)_ZNSt6vectorIN5GpgME3KeyESaIS1_EED1Ev@Base 1.7.0
 (optional=templinst)_ZNSt6vectorIN5GpgME3KeyESaIS1_EED2Ev@Base 1.7.0
 (optional=templinst)_ZNSt6vectorIN5GpgME3KeyESaIS1_EEaSERKS3_@Base 1.7.0
 (optional=templinst)_ZNSt6vectorINSt7__cxx1112basic_stringIcSt11char_traitsIcESaIcEEESaIS5_EE12emplace_backIJS5_EEEvDpOT_@Base 1.7.0
 (optional=templinst)_ZNSt6vectorINSt7__cxx1112basic_stringIcSt11char_traitsIcESaIcEEESaIS5_EE19_M_emplace_back_auxIJS5_EEEvDpOT_@Base 1.7.0
 (optional=templinst)_ZNSt6vectorIjSaIjEEaSERKS1_@Base 1.7.0
 (optional=templinst)_ZNSt8functionIFSt5tupleIJN5GpgME13SigningResultENS1_16EncryptionResultE10QByteArray7QStringNS1_5ErrorEEEvEEC1ISt5_BindIFSB_IFPFS7_PNS1_7ContextEP7QThreadRKSt6vectorINS1_3KeyESaISH_EESL_RKSt8weak_ptrI9QIODeviceESQ_NSC_15EncryptionFlagsEbESt12_PlaceholderILi1EESU_ILi2EESJ_SJ_SU_ILi3EESU_ILi4EESR_bEESD_SF_SO_SO_EEvvEET_@Base 1.7.0
 (optional=templinst)_ZNSt8functionIFSt5tupleIJN5GpgME13SigningResultENS1_16EncryptionResultE10QByteArray7QStringNS1_5ErrorEEEvEEC2ISt5_BindIFSB_IFPFS7_PNS1_7ContextEP7QThreadRKSt6vectorINS1_3KeyESaISH_EESL_RKSt8weak_ptrI9QIODeviceESQ_NSC_15EncryptionFlagsEbESt12_PlaceholderILi1EESU_ILi2EESJ_SJ_SU_ILi3EESU_ILi4EESR_bEESD_SF_SO_SO_EEvvEET_@Base 1.7.0
 (optional=templinst)_ZSt11__make_heapIN9__gnu_cxx17__normal_iteratorIPN5GpgME3KeyESt6vectorIS3_SaIS3_EEEENS0_5__ops15_Iter_comp_iterI13ByFingerprintISt4lessEEEEvT_SF_T0_@Base 1.7.0
 (optional=templinst)_ZSt11__push_heapIN9__gnu_cxx17__normal_iteratorIPN5GpgME3KeyESt6vectorIS3_SaIS3_EEEElS3_NS0_5__ops14_Iter_comp_valI13ByFingerprintISt4lessEEEEvT_T0_SG_T1_T2_@Base 1.7.0
 (optional=templinst)_ZSt13__adjust_heapIN9__gnu_cxx17__normal_iteratorIPN5GpgME3KeyESt6vectorIS3_SaIS3_EEEElS3_NS0_5__ops15_Iter_comp_iterI13ByFingerprintISt4lessEEEEvT_T0_SG_T1_T2_@Base 1.7.0
 (optional=templinst)_ZSt16__insertion_sortIN9__gnu_cxx17__normal_iteratorIPN5GpgME3KeyESt6vectorIS3_SaIS3_EEEENS0_5__ops15_Iter_comp_iterI13ByFingerprintISt4lessEEEEvT_SF_T0_@Base 1.7.0
 (optional=templinst)_ZSt16__introsort_loopIN9__gnu_cxx17__normal_iteratorIPN5GpgME3KeyESt6vectorIS3_SaIS3_EEEElNS0_5__ops15_Iter_comp_iterI13ByFingerprintISt4lessEEEEvT_SF_T0_T1_@Base 1.7.0
 _ZSt20__throw_bad_weak_ptrv@Base 1.7.0
 (optional=templinst)_ZSt25__unguarded_linear_insertIN9__gnu_cxx17__normal_iteratorIPN5GpgME3KeyESt6vectorIS3_SaIS3_EEEENS0_5__ops14_Val_comp_iterI13ByFingerprintISt4lessEEEEvT_T0_@Base 1.7.0
 _ZTI21QGpgMENewCryptoConfig@Base 1.7.0
 _ZTI26QGpgMENewCryptoConfigEntry@Base 1.7.0
 _ZTI26QGpgMENewCryptoConfigGroup@Base 1.7.0
 _ZTI30QGpgMENewCryptoConfigComponent@Base 1.7.0
 _ZTIN5GpgME12DataProviderE@Base 1.7.0
 _ZTIN5GpgME16ProgressProviderE@Base 1.7.0
 _ZTIN6QGpgME10DecryptJobE@Base 1.7.0
 _ZTIN6QGpgME10EncryptJobE@Base 1.7.0
 _ZTIN6QGpgME10KeyListJobE@Base 1.7.0
 _ZTIN6QGpgME10SignKeyJobE@Base 1.7.0
 _ZTIN6QGpgME10SpecialJobE@Base 1.7.0
 _ZTIN6QGpgME11DownloadJobE@Base 1.7.0
 _ZTIN6QGpgME12AddUserIDJobE@Base 1.7.0
 _ZTIN6QGpgME12CryptoConfigE@Base 1.7.0
 _ZTIN6QGpgME13QGpgMESignJobE@Base 1.7.0
 _ZTIN6QGpgME13TofuPolicyJobE@Base 1.7.0
 _ZTIN6QGpgME13WKSPublishJobE@Base 1.7.0
 _ZTIN6QGpgME14ListAllKeysJobE@Base 1.7.0
 _ZTIN6QGpgME14RefreshKeysJobE@Base 1.7.0
 _ZTIN6QGpgME14SignEncryptJobE@Base 1.7.0
 _ZTIN6QGpgME15ChangeExpiryJobE@Base 1.7.0
 _ZTIN6QGpgME15ChangePasswdJobE@Base 1.7.0
 _ZTIN6QGpgME15QGpgMEDeleteJobE@Base 1.7.0
 _ZTIN6QGpgME15QGpgMEExportJobE@Base 1.7.0
 _ZTIN6QGpgME15QGpgMEImportJobE@Base 1.7.0
 _ZTIN6QGpgME15VerifyOpaqueJobE@Base 1.7.0
 _ZTIN6QGpgME16DecryptVerifyJobE@Base 1.7.0
 _ZTIN6QGpgME16KeyForMailboxJobE@Base 1.7.0
 _ZTIN6QGpgME16KeyGenerationJobE@Base 1.7.0
 _ZTIN6QGpgME16QGpgMEDecryptJobE@Base 1.7.0
 _ZTIN6QGpgME16QGpgMEEncryptJobE@Base 1.7.0
 _ZTIN6QGpgME16QGpgMEKeyListJobE@Base 1.7.0
 _ZTIN6QGpgME16QGpgMESignKeyJobE@Base 1.7.0
 _ZTIN6QGpgME17AbstractImportJobE@Base 1.7.0
 _ZTIN6QGpgME17CryptoConfigEntryE@Base 1.7.0
 _ZTIN6QGpgME17CryptoConfigGroupE@Base 1.7.0
 _ZTIN6QGpgME17QGpgMEDownloadJobE@Base 1.7.0
 _ZTIN6QGpgME17VerifyDetachedJobE@Base 1.7.0
 _ZTIN6QGpgME18QGpgMEAddUserIDJobE@Base 1.7.0
 _ZTIN6QGpgME19ChangeOwnerTrustJobE@Base 1.7.0
 _ZTIN6QGpgME19QGpgMETofuPolicyJobE@Base 1.7.0
 _ZTIN6QGpgME19QGpgMEWKSPublishJobE@Base 1.7.0
 _ZTIN6QGpgME20QGpgMEListAllKeysJobE@Base 1.7.0
 _ZTIN6QGpgME20QGpgMERefreshKeysJobE@Base 1.7.0
 _ZTIN6QGpgME20QGpgMESignEncryptJobE@Base 1.7.0
 _ZTIN6QGpgME21CryptoConfigComponentE@Base 1.7.0
 _ZTIN6QGpgME21QGpgMEChangeExpiryJobE@Base 1.7.0
 _ZTIN6QGpgME21QGpgMEChangePasswdJobE@Base 1.7.0
 _ZTIN6QGpgME21QGpgMEVerifyOpaqueJobE@Base 1.7.0
 _ZTIN6QGpgME21QIODeviceDataProviderE@Base 1.7.0
 _ZTIN6QGpgME22ImportFromKeyserverJobE@Base 1.7.0
 _ZTIN6QGpgME22QByteArrayDataProviderE@Base 1.7.0
 _ZTIN6QGpgME22QGpgMEDecryptVerifyJobE@Base 1.7.0
 _ZTIN6QGpgME22QGpgMEKeyForMailboxJobE@Base 1.7.0
 _ZTIN6QGpgME22QGpgMEKeyGenerationJobE@Base 1.7.0
 _ZTIN6QGpgME23DefaultKeyGenerationJobE@Base 1.7.0
 _ZTIN6QGpgME23QGpgMEVerifyDetachedJobE@Base 1.7.0
 _ZTIN6QGpgME24QGpgMESecretKeyExportJobE@Base 1.7.0
 _ZTIN6QGpgME25QGpgMEChangeOwnerTrustJobE@Base 1.7.0
 _ZTIN6QGpgME28QGpgMEImportFromKeyserverJobE@Base 1.7.0
 _ZTIN6QGpgME3JobE@Base 1.7.0
 _ZTIN6QGpgME7SignJobE@Base 1.7.0
 _ZTIN6QGpgME7_detail16ThreadedJobMixinINS_10DecryptJobESt5tupleIJN5GpgME16DecryptionResultE10QByteArray7QStringNS4_5ErrorEEEEE@Base 1.7.0
 _ZTIN6QGpgME7_detail16ThreadedJobMixinINS_10EncryptJobESt5tupleIJN5GpgME16EncryptionResultE10QByteArray7QStringNS4_5ErrorEEEEE@Base 1.7.0
 _ZTIN6QGpgME7_detail16ThreadedJobMixinINS_10KeyListJobESt5tupleIJN5GpgME13KeyListResultESt6vectorINS4_3KeyESaIS7_EE7QStringNS4_5ErrorEEEEE@Base 1.7.0
 _ZTIN6QGpgME7_detail16ThreadedJobMixinINS_10SignKeyJobESt5tupleIJN5GpgME5ErrorE7QStringS5_EEEE@Base 1.7.0
 _ZTIN6QGpgME7_detail16ThreadedJobMixinINS_11DownloadJobESt5tupleIJN5GpgME5ErrorE10QByteArray7QStringS5_EEEE@Base 1.7.0
 _ZTIN6QGpgME7_detail16ThreadedJobMixinINS_12AddUserIDJobESt5tupleIJN5GpgME5ErrorE7QStringS5_EEEE@Base 1.7.0
 _ZTIN6QGpgME7_detail16ThreadedJobMixinINS_13TofuPolicyJobESt5tupleIJN5GpgME5ErrorE7QStringS5_EEEE@Base 1.7.0
 _ZTIN6QGpgME7_detail16ThreadedJobMixinINS_13WKSPublishJobESt5tupleIJN5GpgME5ErrorE10QByteArrayS6_7QStringS5_EEEE@Base 1.7.0
 _ZTIN6QGpgME7_detail16ThreadedJobMixinINS_14ListAllKeysJobESt5tupleIJN5GpgME13KeyListResultESt6vectorINS4_3KeyESaIS7_EES9_7QStringNS4_5ErrorEEEEE@Base 1.7.0
 _ZTIN6QGpgME7_detail16ThreadedJobMixinINS_14SignEncryptJobESt5tupleIJN5GpgME13SigningResultENS4_16EncryptionResultE10QByteArray7QStringNS4_5ErrorEEEEE@Base 1.7.0
 _ZTIN6QGpgME7_detail16ThreadedJobMixinINS_15ChangeExpiryJobESt5tupleIJN5GpgME5ErrorE7QStringS5_EEEE@Base 1.7.0
 _ZTIN6QGpgME7_detail16ThreadedJobMixinINS_15ChangePasswdJobESt5tupleIJN5GpgME5ErrorE7QStringS5_EEEE@Base 1.7.0
 _ZTIN6QGpgME7_detail16ThreadedJobMixinINS_15VerifyOpaqueJobESt5tupleIJN5GpgME18VerificationResultE10QByteArray7QStringNS4_5ErrorEEEEE@Base 1.7.0
 _ZTIN6QGpgME7_detail16ThreadedJobMixinINS_16DecryptVerifyJobESt5tupleIJN5GpgME16DecryptionResultENS4_18VerificationResultE10QByteArray7QStringNS4_5ErrorEEEEE@Base 1.7.0
 _ZTIN6QGpgME7_detail16ThreadedJobMixinINS_16KeyForMailboxJobESt5tupleIJN5GpgME13KeyListResultENS4_3KeyENS4_6UserIDE7QStringNS4_5ErrorEEEEE@Base 1.7.0
 _ZTIN6QGpgME7_detail16ThreadedJobMixinINS_16KeyGenerationJobESt5tupleIJN5GpgME19KeyGenerationResultE10QByteArray7QStringNS4_5ErrorEEEEE@Base 1.7.0
 _ZTIN6QGpgME7_detail16ThreadedJobMixinINS_17VerifyDetachedJobESt5tupleIJN5GpgME18VerificationResultE7QStringNS4_5ErrorEEEEE@Base 1.7.0
 _ZTIN6QGpgME7_detail16ThreadedJobMixinINS_19ChangeOwnerTrustJobESt5tupleIJN5GpgME5ErrorE7QStringS5_EEEE@Base 1.7.0
 _ZTIN6QGpgME7_detail16ThreadedJobMixinINS_22ImportFromKeyserverJobESt5tupleIJN5GpgME12ImportResultE7QStringNS4_5ErrorEEEEE@Base 1.7.0
 _ZTIN6QGpgME7_detail16ThreadedJobMixinINS_7SignJobESt5tupleIJN5GpgME13SigningResultE10QByteArray7QStringNS4_5ErrorEEEEE@Base 1.7.0
 _ZTIN6QGpgME7_detail16ThreadedJobMixinINS_9DeleteJobESt5tupleIJN5GpgME5ErrorE7QStringS5_EEEE@Base 1.7.0
 _ZTIN6QGpgME7_detail16ThreadedJobMixinINS_9ExportJobESt5tupleIJN5GpgME5ErrorE10QByteArray7QStringS5_EEEE@Base 1.7.0
 _ZTIN6QGpgME7_detail16ThreadedJobMixinINS_9ImportJobESt5tupleIJN5GpgME12ImportResultE7QStringNS4_5ErrorEEEEE@Base 1.7.0
 _ZTIN6QGpgME7_detail6ThreadISt5tupleIJN5GpgME12ImportResultE7QStringNS3_5ErrorEEEEE@Base 1.7.0
 _ZTIN6QGpgME7_detail6ThreadISt5tupleIJN5GpgME13KeyListResultENS3_3KeyENS3_6UserIDE7QStringNS3_5ErrorEEEEE@Base 1.7.0
 _ZTIN6QGpgME7_detail6ThreadISt5tupleIJN5GpgME13KeyListResultESt6vectorINS3_3KeyESaIS6_EE7QStringNS3_5ErrorEEEEE@Base 1.7.0
 _ZTIN6QGpgME7_detail6ThreadISt5tupleIJN5GpgME13KeyListResultESt6vectorINS3_3KeyESaIS6_EES8_7QStringNS3_5ErrorEEEEE@Base 1.7.0
 _ZTIN6QGpgME7_detail6ThreadISt5tupleIJN5GpgME13SigningResultE10QByteArray7QStringNS3_5ErrorEEEEE@Base 1.7.0
 _ZTIN6QGpgME7_detail6ThreadISt5tupleIJN5GpgME13SigningResultENS3_16EncryptionResultE10QByteArray7QStringNS3_5ErrorEEEEE@Base 1.7.0
 _ZTIN6QGpgME7_detail6ThreadISt5tupleIJN5GpgME16DecryptionResultE10QByteArray7QStringNS3_5ErrorEEEEE@Base 1.7.0
 _ZTIN6QGpgME7_detail6ThreadISt5tupleIJN5GpgME16DecryptionResultENS3_18VerificationResultE10QByteArray7QStringNS3_5ErrorEEEEE@Base 1.7.0
 _ZTIN6QGpgME7_detail6ThreadISt5tupleIJN5GpgME16EncryptionResultE10QByteArray7QStringNS3_5ErrorEEEEE@Base 1.7.0
 _ZTIN6QGpgME7_detail6ThreadISt5tupleIJN5GpgME18VerificationResultE10QByteArray7QStringNS3_5ErrorEEEEE@Base 1.7.0
 _ZTIN6QGpgME7_detail6ThreadISt5tupleIJN5GpgME18VerificationResultE7QStringNS3_5ErrorEEEEE@Base 1.7.0
 _ZTIN6QGpgME7_detail6ThreadISt5tupleIJN5GpgME19KeyGenerationResultE10QByteArray7QStringNS3_5ErrorEEEEE@Base 1.7.0
 _ZTIN6QGpgME7_detail6ThreadISt5tupleIJN5GpgME5ErrorE10QByteArray7QStringS4_EEEE@Base 1.7.0
 _ZTIN6QGpgME7_detail6ThreadISt5tupleIJN5GpgME5ErrorE10QByteArrayS5_7QStringS4_EEEE@Base 1.7.0
 _ZTIN6QGpgME7_detail6ThreadISt5tupleIJN5GpgME5ErrorE7QStringS4_EEEE@Base 1.7.0
 _ZTIN6QGpgME8ProtocolE@Base 1.7.0
 _ZTIN6QGpgME9DeleteJobE@Base 1.7.0
 _ZTIN6QGpgME9ExportJobE@Base 1.7.0
 _ZTIN6QGpgME9ImportJobE@Base 1.7.0
 _ZTISt11_Mutex_baseILN9__gnu_cxx12_Lock_policyE2EE@Base 1.7.0
 _ZTISt15_Sp_counted_ptrIP26QGpgMENewCryptoConfigEntryLN9__gnu_cxx12_Lock_policyE2EE@Base 1.7.0
 _ZTISt15_Sp_counted_ptrIP26QGpgMENewCryptoConfigGroupLN9__gnu_cxx12_Lock_policyE2EE@Base 1.7.0
 _ZTISt15_Sp_counted_ptrIP30QGpgMENewCryptoConfigComponentLN9__gnu_cxx12_Lock_policyE2EE@Base 1.7.0
 _ZTISt15_Sp_counted_ptrIP7QBufferLN9__gnu_cxx12_Lock_policyE2EE@Base 1.7.0
 _ZTISt15_Sp_counted_ptrIPN5GpgME7ContextELN9__gnu_cxx12_Lock_policyE2EE@Base 1.7.0
 _ZTISt16_Sp_counted_baseILN9__gnu_cxx12_Lock_policyE2EE@Base 1.7.0
 _ZTISt17_Weak_result_typeISt5_BindIFPFSt5tupleIJN5GpgME12ImportResultE7QStringNS2_5ErrorEEEPNS2_7ContextERK10QByteArrayESt12_PlaceholderILi1EES9_EEE@Base 1.7.0
 _ZTISt17_Weak_result_typeISt5_BindIFPFSt5tupleIJN5GpgME12ImportResultE7QStringNS2_5ErrorEEEPNS2_7ContextERKSt6vectorINS2_3KeyESaISA_EEESt12_PlaceholderILi1EESC_EEE@Base 1.7.0
 _ZTISt17_Weak_result_typeISt5_BindIFPFSt5tupleIJN5GpgME13KeyListResultENS2_3KeyENS2_6UserIDE7QStringNS2_5ErrorEEEPNS2_7ContextERKS6_bESt12_PlaceholderILi1EES6_bEEE@Base 1.7.0
 _ZTISt17_Weak_result_typeISt5_BindIFPFSt5tupleIJN5GpgME13KeyListResultESt6vectorINS2_3KeyESaIS5_EE7QStringNS2_5ErrorEEEPNS2_7ContextE11QStringListbESt12_PlaceholderILi1EESD_bEEE@Base 1.7.0
 _ZTISt17_Weak_result_typeISt5_BindIFPFSt5tupleIJN5GpgME13KeyListResultESt6vectorINS2_3KeyESaIS5_EES7_7QStringNS2_5ErrorEEEPNS2_7ContextEbESt12_PlaceholderILi1EEbEEE@Base 1.7.0
 _ZTISt17_Weak_result_typeISt5_BindIFPFSt5tupleIJN5GpgME13SigningResultE10QByteArray7QStringNS2_5ErrorEEEPNS2_7ContextEP7QThreadRKSt6vectorINS2_3KeyESaISD_EERKSt8weak_ptrI9QIODeviceESM_NS2_13SignatureModeEbESt12_PlaceholderILi1EESQ_ILi2EESF_SQ_ILi3EESQ_ILi4EESN_bEEE@Base 1.7.0
 _ZTISt17_Weak_result_typeISt5_BindIFPFSt5tupleIJN5GpgME13SigningResultE10QByteArray7QStringNS2_5ErrorEEEPNS2_7ContextERKSt6vectorINS2_3KeyESaISB_EERKS4_NS2_13SignatureModeEbESt12_PlaceholderILi1EESD_S4_SI_bEEE@Base 1.7.0
 _ZTISt17_Weak_result_typeISt5_BindIFPFSt5tupleIJN5GpgME13SigningResultENS2_16EncryptionResultE10QByteArray7QStringNS2_5ErrorEEEPNS2_7ContextEP7QThreadRKSt6vectorINS2_3KeyESaISE_EESI_RKSt8weak_ptrI9QIODeviceESN_NS9_15EncryptionFlagsEbESt12_PlaceholderILi1EESR_ILi2EESG_SG_SR_ILi3EESR_ILi4EESO_bEEE@Base 1.7.0
 _ZTISt17_Weak_result_typeISt5_BindIFPFSt5tupleIJN5GpgME13SigningResultENS2_16EncryptionResultE10QByteArray7QStringNS2_5ErrorEEEPNS2_7ContextERKSt6vectorINS2_3KeyESaISC_EESG_RKS5_NS9_15EncryptionFlagsEbESt12_PlaceholderILi1EESE_SE_S5_SJ_bEEE@Base 1.7.0
 _ZTISt17_Weak_result_typeISt5_BindIFPFSt5tupleIJN5GpgME16DecryptionResultE10QByteArray7QStringNS2_5ErrorEEEPNS2_7ContextEP7QThreadRKSt8weak_ptrI9QIODeviceESG_ESt12_PlaceholderILi1EESJ_ILi2EESJ_ILi3EESJ_ILi4EEEEE@Base 1.7.0
 _ZTISt17_Weak_result_typeISt5_BindIFPFSt5tupleIJN5GpgME16DecryptionResultE10QByteArray7QStringNS2_5ErrorEEEPNS2_7ContextERKS4_ESt12_PlaceholderILi1EES4_EEE@Base 1.7.0
 _ZTISt17_Weak_result_typeISt5_BindIFPFSt5tupleIJN5GpgME16DecryptionResultENS2_18VerificationResultE10QByteArray7QStringNS2_5ErrorEEEPNS2_7ContextEP7QThreadRKSt8weak_ptrI9QIODeviceESH_ESt12_PlaceholderILi1EESK_ILi2EESK_ILi3EESK_ILi4EEEEE@Base 1.7.0
 _ZTISt17_Weak_result_typeISt5_BindIFPFSt5tupleIJN5GpgME16DecryptionResultENS2_18VerificationResultE10QByteArray7QStringNS2_5ErrorEEEPNS2_7ContextERKS5_ESt12_PlaceholderILi1EES5_EEE@Base 1.7.0
 _ZTISt17_Weak_result_typeISt5_BindIFPFSt5tupleIJN5GpgME16EncryptionResultE10QByteArray7QStringNS2_5ErrorEEEPNS2_7ContextEP7QThreadRKSt6vectorINS2_3KeyESaISD_EERKSt8weak_ptrI9QIODeviceESM_NS8_15EncryptionFlagsEbESt12_PlaceholderILi1EESQ_ILi2EESF_SQ_ILi3EESQ_ILi4EESN_bEEE@Base 1.7.0
 _ZTISt17_Weak_result_typeISt5_BindIFPFSt5tupleIJN5GpgME16EncryptionResultE10QByteArray7QStringNS2_5ErrorEEEPNS2_7ContextERKSt6vectorINS2_3KeyESaISB_EERKS4_NS8_15EncryptionFlagsEbESt12_PlaceholderILi1EESD_S4_SI_bEEE@Base 1.7.0
 _ZTISt17_Weak_result_typeISt5_BindIFPFSt5tupleIJN5GpgME18VerificationResultE10QByteArray7QStringNS2_5ErrorEEEPNS2_7ContextEP7QThreadRKSt8weak_ptrI9QIODeviceESG_ESt12_PlaceholderILi1EESJ_ILi2EESJ_ILi3EESJ_ILi4EEEEE@Base 1.7.0
 _ZTISt17_Weak_result_typeISt5_BindIFPFSt5tupleIJN5GpgME18VerificationResultE10QByteArray7QStringNS2_5ErrorEEEPNS2_7ContextERKS4_ESt12_PlaceholderILi1EES4_EEE@Base 1.7.0
 _ZTISt17_Weak_result_typeISt5_BindIFPFSt5tupleIJN5GpgME18VerificationResultE7QStringNS2_5ErrorEEEPNS2_7ContextEP7QThreadRKSt8weak_ptrI9QIODeviceESF_ESt12_PlaceholderILi1EESI_ILi2EESI_ILi3EESI_ILi4EEEEE@Base 1.7.0
 _ZTISt17_Weak_result_typeISt5_BindIFPFSt5tupleIJN5GpgME18VerificationResultE7QStringNS2_5ErrorEEEPNS2_7ContextERK10QByteArraySB_ESt12_PlaceholderILi1EES9_S9_EEE@Base 1.7.0
 _ZTISt17_Weak_result_typeISt5_BindIFPFSt5tupleIJN5GpgME19KeyGenerationResultE10QByteArray7QStringNS2_5ErrorEEEPNS2_7ContextERKS5_ESt12_PlaceholderILi1EES5_EEE@Base 1.7.0
 _ZTISt17_Weak_result_typeISt5_BindIFPFSt5tupleIJN5GpgME5ErrorE10QByteArray7QStringS3_EEPNS2_7ContextEP7QThreadRKS4_RKSt8weak_ptrI9QIODeviceEESt12_PlaceholderILi1EESK_ILi2EES4_SK_ILi3EEEEE@Base 1.7.0
 _ZTISt17_Weak_result_typeISt5_BindIFPFSt5tupleIJN5GpgME5ErrorE10QByteArray7QStringS3_EEPNS2_7ContextERK11QStringListESt12_PlaceholderILi1EES9_EEE@Base 1.7.0
 _ZTISt17_Weak_result_typeISt5_BindIFPFSt5tupleIJN5GpgME5ErrorE10QByteArrayS4_7QStringS3_EEPKcRKS5_ES8_S5_EEE@Base 1.7.0
 _ZTISt17_Weak_result_typeISt5_BindIFPFSt5tupleIJN5GpgME5ErrorE10QByteArrayS4_7QStringS3_EERKS4_ES4_EEE@Base 1.7.0
 _ZTISt17_Weak_result_typeISt5_BindIFPFSt5tupleIJN5GpgME5ErrorE10QByteArrayS4_7QStringS3_EERKS5_ES5_EEE@Base 1.7.0
 _ZTISt17_Weak_result_typeISt5_BindIFPFSt5tupleIJN5GpgME5ErrorE7QStringS3_EEPNS2_7ContextERKNS2_3KeyEESt12_PlaceholderILi1EES8_EEE@Base 1.7.0
 _ZTISt17_Weak_result_typeISt5_BindIFPFSt5tupleIJN5GpgME5ErrorE7QStringS3_EEPNS2_7ContextERKNS2_3KeyENS2_8TofuInfo6PolicyEESt12_PlaceholderILi1EES8_SC_EEE@Base 1.7.0
 _ZTISt17_Weak_result_typeISt5_BindIFPFSt5tupleIJN5GpgME5ErrorE7QStringS3_EEPNS2_7ContextERKNS2_3KeyENS8_10OwnerTrustEESt12_PlaceholderILi1EES8_SB_EEE@Base 1.7.0
 _ZTISt17_Weak_result_typeISt5_BindIFPFSt5tupleIJN5GpgME5ErrorE7QStringS3_EEPNS2_7ContextERKNS2_3KeyERK9QDateTimeESt12_PlaceholderILi1EES8_SB_EEE@Base 1.7.0
 _ZTISt17_Weak_result_typeISt5_BindIFPFSt5tupleIJN5GpgME5ErrorE7QStringS3_EEPNS2_7ContextERKNS2_3KeyERKS4_SC_SC_ESt12_PlaceholderILi1EES8_S4_S4_S4_EEE@Base 1.7.0
 _ZTISt17_Weak_result_typeISt5_BindIFPFSt5tupleIJN5GpgME5ErrorE7QStringS3_EEPNS2_7ContextERKNS2_3KeyERKSt6vectorIjSaIjEEjSA_jESt12_PlaceholderILi1EES8_SD_jS8_jEEE@Base 1.7.0
 _ZTISt17_Weak_result_typeISt5_BindIFPFSt5tupleIJN5GpgME5ErrorE7QStringS3_EEPNS2_7ContextERKNS2_3KeyEbESt12_PlaceholderILi1EES8_bEEE@Base 1.7.0
 _ZTISt22_Maybe_get_result_typeISt5_BindIFPFSt5tupleIJN5GpgME12ImportResultE7QStringNS2_5ErrorEEEPNS2_7ContextERK10QByteArrayESt12_PlaceholderILi1EES9_EEvE@Base 1.7.0
 _ZTISt22_Maybe_get_result_typeISt5_BindIFPFSt5tupleIJN5GpgME12ImportResultE7QStringNS2_5ErrorEEEPNS2_7ContextERKSt6vectorINS2_3KeyESaISA_EEESt12_PlaceholderILi1EESC_EEvE@Base 1.7.0
 _ZTISt22_Maybe_get_result_typeISt5_BindIFPFSt5tupleIJN5GpgME13KeyListResultENS2_3KeyENS2_6UserIDE7QStringNS2_5ErrorEEEPNS2_7ContextERKS6_bESt12_PlaceholderILi1EES6_bEEvE@Base 1.7.0
 _ZTISt22_Maybe_get_result_typeISt5_BindIFPFSt5tupleIJN5GpgME13KeyListResultESt6vectorINS2_3KeyESaIS5_EE7QStringNS2_5ErrorEEEPNS2_7ContextE11QStringListbESt12_PlaceholderILi1EESD_bEEvE@Base 1.7.0
 _ZTISt22_Maybe_get_result_typeISt5_BindIFPFSt5tupleIJN5GpgME13KeyListResultESt6vectorINS2_3KeyESaIS5_EES7_7QStringNS2_5ErrorEEEPNS2_7ContextEbESt12_PlaceholderILi1EEbEEvE@Base 1.7.0
 _ZTISt22_Maybe_get_result_typeISt5_BindIFPFSt5tupleIJN5GpgME13SigningResultE10QByteArray7QStringNS2_5ErrorEEEPNS2_7ContextEP7QThreadRKSt6vectorINS2_3KeyESaISD_EERKSt8weak_ptrI9QIODeviceESM_NS2_13SignatureModeEbESt12_PlaceholderILi1EESQ_ILi2EESF_SQ_ILi3EESQ_ILi4EESN_bEEvE@Base 1.7.0
 _ZTISt22_Maybe_get_result_typeISt5_BindIFPFSt5tupleIJN5GpgME13SigningResultE10QByteArray7QStringNS2_5ErrorEEEPNS2_7ContextERKSt6vectorINS2_3KeyESaISB_EERKS4_NS2_13SignatureModeEbESt12_PlaceholderILi1EESD_S4_SI_bEEvE@Base 1.7.0
 _ZTISt22_Maybe_get_result_typeISt5_BindIFPFSt5tupleIJN5GpgME13SigningResultENS2_16EncryptionResultE10QByteArray7QStringNS2_5ErrorEEEPNS2_7ContextEP7QThreadRKSt6vectorINS2_3KeyESaISE_EESI_RKSt8weak_ptrI9QIODeviceESN_NS9_15EncryptionFlagsEbESt12_PlaceholderILi1EESR_ILi2EESG_SG_SR_ILi3EESR_ILi4EESO_bEEvE@Base 1.7.0
 _ZTISt22_Maybe_get_result_typeISt5_BindIFPFSt5tupleIJN5GpgME13SigningResultENS2_16EncryptionResultE10QByteArray7QStringNS2_5ErrorEEEPNS2_7ContextERKSt6vectorINS2_3KeyESaISC_EESG_RKS5_NS9_15EncryptionFlagsEbESt12_PlaceholderILi1EESE_SE_S5_SJ_bEEvE@Base 1.7.0
 _ZTISt22_Maybe_get_result_typeISt5_BindIFPFSt5tupleIJN5GpgME16DecryptionResultE10QByteArray7QStringNS2_5ErrorEEEPNS2_7ContextEP7QThreadRKSt8weak_ptrI9QIODeviceESG_ESt12_PlaceholderILi1EESJ_ILi2EESJ_ILi3EESJ_ILi4EEEEvE@Base 1.7.0
 _ZTISt22_Maybe_get_result_typeISt5_BindIFPFSt5tupleIJN5GpgME16DecryptionResultE10QByteArray7QStringNS2_5ErrorEEEPNS2_7ContextERKS4_ESt12_PlaceholderILi1EES4_EEvE@Base 1.7.0
 _ZTISt22_Maybe_get_result_typeISt5_BindIFPFSt5tupleIJN5GpgME16DecryptionResultENS2_18VerificationResultE10QByteArray7QStringNS2_5ErrorEEEPNS2_7ContextEP7QThreadRKSt8weak_ptrI9QIODeviceESH_ESt12_PlaceholderILi1EESK_ILi2EESK_ILi3EESK_ILi4EEEEvE@Base 1.7.0
 _ZTISt22_Maybe_get_result_typeISt5_BindIFPFSt5tupleIJN5GpgME16DecryptionResultENS2_18VerificationResultE10QByteArray7QStringNS2_5ErrorEEEPNS2_7ContextERKS5_ESt12_PlaceholderILi1EES5_EEvE@Base 1.7.0
 _ZTISt22_Maybe_get_result_typeISt5_BindIFPFSt5tupleIJN5GpgME16EncryptionResultE10QByteArray7QStringNS2_5ErrorEEEPNS2_7ContextEP7QThreadRKSt6vectorINS2_3KeyESaISD_EERKSt8weak_ptrI9QIODeviceESM_NS8_15EncryptionFlagsEbESt12_PlaceholderILi1EESQ_ILi2EESF_SQ_ILi3EESQ_ILi4EESN_bEEvE@Base 1.7.0
 _ZTISt22_Maybe_get_result_typeISt5_BindIFPFSt5tupleIJN5GpgME16EncryptionResultE10QByteArray7QStringNS2_5ErrorEEEPNS2_7ContextERKSt6vectorINS2_3KeyESaISB_EERKS4_NS8_15EncryptionFlagsEbESt12_PlaceholderILi1EESD_S4_SI_bEEvE@Base 1.7.0
 _ZTISt22_Maybe_get_result_typeISt5_BindIFPFSt5tupleIJN5GpgME18VerificationResultE10QByteArray7QStringNS2_5ErrorEEEPNS2_7ContextEP7QThreadRKSt8weak_ptrI9QIODeviceESG_ESt12_PlaceholderILi1EESJ_ILi2EESJ_ILi3EESJ_ILi4EEEEvE@Base 1.7.0
 _ZTISt22_Maybe_get_result_typeISt5_BindIFPFSt5tupleIJN5GpgME18VerificationResultE10QByteArray7QStringNS2_5ErrorEEEPNS2_7ContextERKS4_ESt12_PlaceholderILi1EES4_EEvE@Base 1.7.0
 _ZTISt22_Maybe_get_result_typeISt5_BindIFPFSt5tupleIJN5GpgME18VerificationResultE7QStringNS2_5ErrorEEEPNS2_7ContextEP7QThreadRKSt8weak_ptrI9QIODeviceESF_ESt12_PlaceholderILi1EESI_ILi2EESI_ILi3EESI_ILi4EEEEvE@Base 1.7.0
 _ZTISt22_Maybe_get_result_typeISt5_BindIFPFSt5tupleIJN5GpgME18VerificationResultE7QStringNS2_5ErrorEEEPNS2_7ContextERK10QByteArraySB_ESt12_PlaceholderILi1EES9_S9_EEvE@Base 1.7.0
 _ZTISt22_Maybe_get_result_typeISt5_BindIFPFSt5tupleIJN5GpgME19KeyGenerationResultE10QByteArray7QStringNS2_5ErrorEEEPNS2_7ContextERKS5_ESt12_PlaceholderILi1EES5_EEvE@Base 1.7.0
 _ZTISt22_Maybe_get_result_typeISt5_BindIFPFSt5tupleIJN5GpgME5ErrorE10QByteArray7QStringS3_EEPNS2_7ContextEP7QThreadRKS4_RKSt8weak_ptrI9QIODeviceEESt12_PlaceholderILi1EESK_ILi2EES4_SK_ILi3EEEEvE@Base 1.7.0
 _ZTISt22_Maybe_get_result_typeISt5_BindIFPFSt5tupleIJN5GpgME5ErrorE10QByteArray7QStringS3_EEPNS2_7ContextERK11QStringListESt12_PlaceholderILi1EES9_EEvE@Base 1.7.0
 _ZTISt22_Maybe_get_result_typeISt5_BindIFPFSt5tupleIJN5GpgME5ErrorE10QByteArrayS4_7QStringS3_EEPKcRKS5_ES8_S5_EEvE@Base 1.7.0
 _ZTISt22_Maybe_get_result_typeISt5_BindIFPFSt5tupleIJN5GpgME5ErrorE10QByteArrayS4_7QStringS3_EERKS4_ES4_EEvE@Base 1.7.0
 _ZTISt22_Maybe_get_result_typeISt5_BindIFPFSt5tupleIJN5GpgME5ErrorE10QByteArrayS4_7QStringS3_EERKS5_ES5_EEvE@Base 1.7.0
 _ZTISt22_Maybe_get_result_typeISt5_BindIFPFSt5tupleIJN5GpgME5ErrorE7QStringS3_EEPNS2_7ContextERKNS2_3KeyEESt12_PlaceholderILi1EES8_EEvE@Base 1.7.0
 _ZTISt22_Maybe_get_result_typeISt5_BindIFPFSt5tupleIJN5GpgME5ErrorE7QStringS3_EEPNS2_7ContextERKNS2_3KeyENS2_8TofuInfo6PolicyEESt12_PlaceholderILi1EES8_SC_EEvE@Base 1.7.0
 _ZTISt22_Maybe_get_result_typeISt5_BindIFPFSt5tupleIJN5GpgME5ErrorE7QStringS3_EEPNS2_7ContextERKNS2_3KeyENS8_10OwnerTrustEESt12_PlaceholderILi1EES8_SB_EEvE@Base 1.7.0
 _ZTISt22_Maybe_get_result_typeISt5_BindIFPFSt5tupleIJN5GpgME5ErrorE7QStringS3_EEPNS2_7ContextERKNS2_3KeyERK9QDateTimeESt12_PlaceholderILi1EES8_SB_EEvE@Base 1.7.0
 _ZTISt22_Maybe_get_result_typeISt5_BindIFPFSt5tupleIJN5GpgME5ErrorE7QStringS3_EEPNS2_7ContextERKNS2_3KeyERKS4_SC_SC_ESt12_PlaceholderILi1EES8_S4_S4_S4_EEvE@Base 1.7.0
 _ZTISt22_Maybe_get_result_typeISt5_BindIFPFSt5tupleIJN5GpgME5ErrorE7QStringS3_EEPNS2_7ContextERKNS2_3KeyERKSt6vectorIjSaIjEEjSA_jESt12_PlaceholderILi1EES8_SD_jS8_jEEvE@Base 1.7.0
 _ZTISt22_Maybe_get_result_typeISt5_BindIFPFSt5tupleIJN5GpgME5ErrorE7QStringS3_EEPNS2_7ContextERKNS2_3KeyEbESt12_PlaceholderILi1EES8_bEEvE@Base 1.7.0
 _ZTISt22_Weak_result_type_implISt5_BindIFPFSt5tupleIJN5GpgME12ImportResultE7QStringNS2_5ErrorEEEPNS2_7ContextERK10QByteArrayESt12_PlaceholderILi1EES9_EEE@Base 1.7.0
 _ZTISt22_Weak_result_type_implISt5_BindIFPFSt5tupleIJN5GpgME12ImportResultE7QStringNS2_5ErrorEEEPNS2_7ContextERKSt6vectorINS2_3KeyESaISA_EEESt12_PlaceholderILi1EESC_EEE@Base 1.7.0
 _ZTISt22_Weak_result_type_implISt5_BindIFPFSt5tupleIJN5GpgME13KeyListResultENS2_3KeyENS2_6UserIDE7QStringNS2_5ErrorEEEPNS2_7ContextERKS6_bESt12_PlaceholderILi1EES6_bEEE@Base 1.7.0
 _ZTISt22_Weak_result_type_implISt5_BindIFPFSt5tupleIJN5GpgME13KeyListResultESt6vectorINS2_3KeyESaIS5_EE7QStringNS2_5ErrorEEEPNS2_7ContextE11QStringListbESt12_PlaceholderILi1EESD_bEEE@Base 1.7.0
 _ZTISt22_Weak_result_type_implISt5_BindIFPFSt5tupleIJN5GpgME13KeyListResultESt6vectorINS2_3KeyESaIS5_EES7_7QStringNS2_5ErrorEEEPNS2_7ContextEbESt12_PlaceholderILi1EEbEEE@Base 1.7.0
 _ZTISt22_Weak_result_type_implISt5_BindIFPFSt5tupleIJN5GpgME13SigningResultE10QByteArray7QStringNS2_5ErrorEEEPNS2_7ContextEP7QThreadRKSt6vectorINS2_3KeyESaISD_EERKSt8weak_ptrI9QIODeviceESM_NS2_13SignatureModeEbESt12_PlaceholderILi1EESQ_ILi2EESF_SQ_ILi3EESQ_ILi4EESN_bEEE@Base 1.7.0
 _ZTISt22_Weak_result_type_implISt5_BindIFPFSt5tupleIJN5GpgME13SigningResultE10QByteArray7QStringNS2_5ErrorEEEPNS2_7ContextERKSt6vectorINS2_3KeyESaISB_EERKS4_NS2_13SignatureModeEbESt12_PlaceholderILi1EESD_S4_SI_bEEE@Base 1.7.0
 _ZTISt22_Weak_result_type_implISt5_BindIFPFSt5tupleIJN5GpgME13SigningResultENS2_16EncryptionResultE10QByteArray7QStringNS2_5ErrorEEEPNS2_7ContextEP7QThreadRKSt6vectorINS2_3KeyESaISE_EESI_RKSt8weak_ptrI9QIODeviceESN_NS9_15EncryptionFlagsEbESt12_PlaceholderILi1EESR_ILi2EESG_SG_SR_ILi3EESR_ILi4EESO_bEEE@Base 1.7.0
 _ZTISt22_Weak_result_type_implISt5_BindIFPFSt5tupleIJN5GpgME13SigningResultENS2_16EncryptionResultE10QByteArray7QStringNS2_5ErrorEEEPNS2_7ContextERKSt6vectorINS2_3KeyESaISC_EESG_RKS5_NS9_15EncryptionFlagsEbESt12_PlaceholderILi1EESE_SE_S5_SJ_bEEE@Base 1.7.0
 _ZTISt22_Weak_result_type_implISt5_BindIFPFSt5tupleIJN5GpgME16DecryptionResultE10QByteArray7QStringNS2_5ErrorEEEPNS2_7ContextEP7QThreadRKSt8weak_ptrI9QIODeviceESG_ESt12_PlaceholderILi1EESJ_ILi2EESJ_ILi3EESJ_ILi4EEEEE@Base 1.7.0
 _ZTISt22_Weak_result_type_implISt5_BindIFPFSt5tupleIJN5GpgME16DecryptionResultE10QByteArray7QStringNS2_5ErrorEEEPNS2_7ContextERKS4_ESt12_PlaceholderILi1EES4_EEE@Base 1.7.0
 _ZTISt22_Weak_result_type_implISt5_BindIFPFSt5tupleIJN5GpgME16DecryptionResultENS2_18VerificationResultE10QByteArray7QStringNS2_5ErrorEEEPNS2_7ContextEP7QThreadRKSt8weak_ptrI9QIODeviceESH_ESt12_PlaceholderILi1EESK_ILi2EESK_ILi3EESK_ILi4EEEEE@Base 1.7.0
 _ZTISt22_Weak_result_type_implISt5_BindIFPFSt5tupleIJN5GpgME16DecryptionResultENS2_18VerificationResultE10QByteArray7QStringNS2_5ErrorEEEPNS2_7ContextERKS5_ESt12_PlaceholderILi1EES5_EEE@Base 1.7.0
 _ZTISt22_Weak_result_type_implISt5_BindIFPFSt5tupleIJN5GpgME16EncryptionResultE10QByteArray7QStringNS2_5ErrorEEEPNS2_7ContextEP7QThreadRKSt6vectorINS2_3KeyESaISD_EERKSt8weak_ptrI9QIODeviceESM_NS8_15EncryptionFlagsEbESt12_PlaceholderILi1EESQ_ILi2EESF_SQ_ILi3EESQ_ILi4EESN_bEEE@Base 1.7.0
 _ZTISt22_Weak_result_type_implISt5_BindIFPFSt5tupleIJN5GpgME16EncryptionResultE10QByteArray7QStringNS2_5ErrorEEEPNS2_7ContextERKSt6vectorINS2_3KeyESaISB_EERKS4_NS8_15EncryptionFlagsEbESt12_PlaceholderILi1EESD_S4_SI_bEEE@Base 1.7.0
 _ZTISt22_Weak_result_type_implISt5_BindIFPFSt5tupleIJN5GpgME18VerificationResultE10QByteArray7QStringNS2_5ErrorEEEPNS2_7ContextEP7QThreadRKSt8weak_ptrI9QIODeviceESG_ESt12_PlaceholderILi1EESJ_ILi2EESJ_ILi3EESJ_ILi4EEEEE@Base 1.7.0
 _ZTISt22_Weak_result_type_implISt5_BindIFPFSt5tupleIJN5GpgME18VerificationResultE10QByteArray7QStringNS2_5ErrorEEEPNS2_7ContextERKS4_ESt12_PlaceholderILi1EES4_EEE@Base 1.7.0
 _ZTISt22_Weak_result_type_implISt5_BindIFPFSt5tupleIJN5GpgME18VerificationResultE7QStringNS2_5ErrorEEEPNS2_7ContextEP7QThreadRKSt8weak_ptrI9QIODeviceESF_ESt12_PlaceholderILi1EESI_ILi2EESI_ILi3EESI_ILi4EEEEE@Base 1.7.0
 _ZTISt22_Weak_result_type_implISt5_BindIFPFSt5tupleIJN5GpgME18VerificationResultE7QStringNS2_5ErrorEEEPNS2_7ContextERK10QByteArraySB_ESt12_PlaceholderILi1EES9_S9_EEE@Base 1.7.0
 _ZTISt22_Weak_result_type_implISt5_BindIFPFSt5tupleIJN5GpgME19KeyGenerationResultE10QByteArray7QStringNS2_5ErrorEEEPNS2_7ContextERKS5_ESt12_PlaceholderILi1EES5_EEE@Base 1.7.0
 _ZTISt22_Weak_result_type_implISt5_BindIFPFSt5tupleIJN5GpgME5ErrorE10QByteArray7QStringS3_EEPNS2_7ContextEP7QThreadRKS4_RKSt8weak_ptrI9QIODeviceEESt12_PlaceholderILi1EESK_ILi2EES4_SK_ILi3EEEEE@Base 1.7.0
 _ZTISt22_Weak_result_type_implISt5_BindIFPFSt5tupleIJN5GpgME5ErrorE10QByteArray7QStringS3_EEPNS2_7ContextERK11QStringListESt12_PlaceholderILi1EES9_EEE@Base 1.7.0
 _ZTISt22_Weak_result_type_implISt5_BindIFPFSt5tupleIJN5GpgME5ErrorE10QByteArrayS4_7QStringS3_EEPKcRKS5_ES8_S5_EEE@Base 1.7.0
 _ZTISt22_Weak_result_type_implISt5_BindIFPFSt5tupleIJN5GpgME5ErrorE10QByteArrayS4_7QStringS3_EERKS4_ES4_EEE@Base 1.7.0
 _ZTISt22_Weak_result_type_implISt5_BindIFPFSt5tupleIJN5GpgME5ErrorE10QByteArrayS4_7QStringS3_EERKS5_ES5_EEE@Base 1.7.0
 _ZTISt22_Weak_result_type_implISt5_BindIFPFSt5tupleIJN5GpgME5ErrorE7QStringS3_EEPNS2_7ContextERKNS2_3KeyEESt12_PlaceholderILi1EES8_EEE@Base 1.7.0
 _ZTISt22_Weak_result_type_implISt5_BindIFPFSt5tupleIJN5GpgME5ErrorE7QStringS3_EEPNS2_7ContextERKNS2_3KeyENS2_8TofuInfo6PolicyEESt12_PlaceholderILi1EES8_SC_EEE@Base 1.7.0
 _ZTISt22_Weak_result_type_implISt5_BindIFPFSt5tupleIJN5GpgME5ErrorE7QStringS3_EEPNS2_7ContextERKNS2_3KeyENS8_10OwnerTrustEESt12_PlaceholderILi1EES8_SB_EEE@Base 1.7.0
 _ZTISt22_Weak_result_type_implISt5_BindIFPFSt5tupleIJN5GpgME5ErrorE7QStringS3_EEPNS2_7ContextERKNS2_3KeyERK9QDateTimeESt12_PlaceholderILi1EES8_SB_EEE@Base 1.7.0
 _ZTISt22_Weak_result_type_implISt5_BindIFPFSt5tupleIJN5GpgME5ErrorE7QStringS3_EEPNS2_7ContextERKNS2_3KeyERKS4_SC_SC_ESt12_PlaceholderILi1EES8_S4_S4_S4_EEE@Base 1.7.0
 _ZTISt22_Weak_result_type_implISt5_BindIFPFSt5tupleIJN5GpgME5ErrorE7QStringS3_EEPNS2_7ContextERKNS2_3KeyERKSt6vectorIjSaIjEEjSA_jESt12_PlaceholderILi1EES8_SD_jS8_jEEE@Base 1.7.0
 _ZTISt22_Weak_result_type_implISt5_BindIFPFSt5tupleIJN5GpgME5ErrorE7QStringS3_EEPNS2_7ContextERKNS2_3KeyEbESt12_PlaceholderILi1EES8_bEEE@Base 1.7.0
 _ZTISt23enable_shared_from_thisI30QGpgMENewCryptoConfigComponentE@Base 1.7.0
 _ZTISt5_BindIFS_IFPFSt5tupleIJN5GpgME12ImportResultE7QStringNS1_5ErrorEEEPNS1_7ContextERK10QByteArrayESt12_PlaceholderILi1EES8_EES7_EE@Base 1.7.0
 _ZTISt5_BindIFS_IFPFSt5tupleIJN5GpgME12ImportResultE7QStringNS1_5ErrorEEEPNS1_7ContextERKSt6vectorINS1_3KeyESaIS9_EEESt12_PlaceholderILi1EESB_EES7_EE@Base 1.7.0
 _ZTISt5_BindIFS_IFPFSt5tupleIJN5GpgME13KeyListResultENS1_3KeyENS1_6UserIDE7QStringNS1_5ErrorEEEPNS1_7ContextERKS5_bESt12_PlaceholderILi1EES5_bEES9_EE@Base 1.7.0
 _ZTISt5_BindIFS_IFPFSt5tupleIJN5GpgME13KeyListResultESt6vectorINS1_3KeyESaIS4_EE7QStringNS1_5ErrorEEEPNS1_7ContextE11QStringListbESt12_PlaceholderILi1EESC_bEESB_EE@Base 1.7.0
 _ZTISt5_BindIFS_IFPFSt5tupleIJN5GpgME13KeyListResultESt6vectorINS1_3KeyESaIS4_EES6_7QStringNS1_5ErrorEEEPNS1_7ContextEbESt12_PlaceholderILi1EEbEESB_EE@Base 1.7.0
 _ZTISt5_BindIFS_IFPFSt5tupleIJN5GpgME13SigningResultE10QByteArray7QStringNS1_5ErrorEEEPNS1_7ContextEP7QThreadRKSt6vectorINS1_3KeyESaISC_EERKSt8weak_ptrI9QIODeviceESL_NS1_13SignatureModeEbESt12_PlaceholderILi1EESP_ILi2EESE_SP_ILi3EESP_ILi4EESM_bEES8_SA_SJ_SJ_EE@Base 1.7.0
 _ZTISt5_BindIFS_IFPFSt5tupleIJN5GpgME13SigningResultE10QByteArray7QStringNS1_5ErrorEEEPNS1_7ContextERKSt6vectorINS1_3KeyESaISA_EERKS3_NS1_13SignatureModeEbESt12_PlaceholderILi1EESC_S3_SH_bEES8_EE@Base 1.7.0
 _ZTISt5_BindIFS_IFPFSt5tupleIJN5GpgME13SigningResultENS1_16EncryptionResultE10QByteArray7QStringNS1_5ErrorEEEPNS1_7ContextEP7QThreadRKSt6vectorINS1_3KeyESaISD_EESH_RKSt8weak_ptrI9QIODeviceESM_NS8_15EncryptionFlagsEbESt12_PlaceholderILi1EESQ_ILi2EESF_SF_SQ_ILi3EESQ_ILi4EESN_bEES9_SB_SK_SK_EE@Base 1.7.0
 _ZTISt5_BindIFS_IFPFSt5tupleIJN5GpgME13SigningResultENS1_16EncryptionResultE10QByteArray7QStringNS1_5ErrorEEEPNS1_7ContextERKSt6vectorINS1_3KeyESaISB_EESF_RKS4_NS8_15EncryptionFlagsEbESt12_PlaceholderILi1EESD_SD_S4_SI_bEES9_EE@Base 1.7.0
 _ZTISt5_BindIFS_IFPFSt5tupleIJN5GpgME16DecryptionResultE10QByteArray7QStringNS1_5ErrorEEEPNS1_7ContextEP7QThreadRKSt8weak_ptrI9QIODeviceESF_ESt12_PlaceholderILi1EESI_ILi2EESI_ILi3EESI_ILi4EEEES8_SA_SD_SD_EE@Base 1.7.0
 _ZTISt5_BindIFS_IFPFSt5tupleIJN5GpgME16DecryptionResultE10QByteArray7QStringNS1_5ErrorEEEPNS1_7ContextERKS3_ESt12_PlaceholderILi1EES3_EES8_EE@Base 1.7.0
 _ZTISt5_BindIFS_IFPFSt5tupleIJN5GpgME16DecryptionResultENS1_18VerificationResultE10QByteArray7QStringNS1_5ErrorEEEPNS1_7ContextEP7QThreadRKSt8weak_ptrI9QIODeviceESG_ESt12_PlaceholderILi1EESJ_ILi2EESJ_ILi3EESJ_ILi4EEEES9_SB_SE_SE_EE@Base 1.7.0
 _ZTISt5_BindIFS_IFPFSt5tupleIJN5GpgME16DecryptionResultENS1_18VerificationResultE10QByteArray7QStringNS1_5ErrorEEEPNS1_7ContextERKS4_ESt12_PlaceholderILi1EES4_EES9_EE@Base 1.7.0
 _ZTISt5_BindIFS_IFPFSt5tupleIJN5GpgME16EncryptionResultE10QByteArray7QStringNS1_5ErrorEEEPNS1_7ContextEP7QThreadRKSt6vectorINS1_3KeyESaISC_EERKSt8weak_ptrI9QIODeviceESL_NS7_15EncryptionFlagsEbESt12_PlaceholderILi1EESP_ILi2EESE_SP_ILi3EESP_ILi4EESM_bEES8_SA_SJ_SJ_EE@Base 1.7.0
 _ZTISt5_BindIFS_IFPFSt5tupleIJN5GpgME16EncryptionResultE10QByteArray7QStringNS1_5ErrorEEEPNS1_7ContextERKSt6vectorINS1_3KeyESaISA_EERKS3_NS7_15EncryptionFlagsEbESt12_PlaceholderILi1EESC_S3_SH_bEES8_EE@Base 1.7.0
 _ZTISt5_BindIFS_IFPFSt5tupleIJN5GpgME18VerificationResultE10QByteArray7QStringNS1_5ErrorEEEPNS1_7ContextEP7QThreadRKSt8weak_ptrI9QIODeviceESF_ESt12_PlaceholderILi1EESI_ILi2EESI_ILi3EESI_ILi4EEEES8_SA_SD_SD_EE@Base 1.7.0
 _ZTISt5_BindIFS_IFPFSt5tupleIJN5GpgME18VerificationResultE10QByteArray7QStringNS1_5ErrorEEEPNS1_7ContextERKS3_ESt12_PlaceholderILi1EES3_EES8_EE@Base 1.7.0
 _ZTISt5_BindIFS_IFPFSt5tupleIJN5GpgME18VerificationResultE7QStringNS1_5ErrorEEEPNS1_7ContextEP7QThreadRKSt8weak_ptrI9QIODeviceESE_ESt12_PlaceholderILi1EESH_ILi2EESH_ILi3EESH_ILi4EEEES7_S9_SC_SC_EE@Base 1.7.0
 _ZTISt5_BindIFS_IFPFSt5tupleIJN5GpgME18VerificationResultE7QStringNS1_5ErrorEEEPNS1_7ContextERK10QByteArraySA_ESt12_PlaceholderILi1EES8_S8_EES7_EE@Base 1.7.0
 _ZTISt5_BindIFS_IFPFSt5tupleIJN5GpgME19KeyGenerationResultE10QByteArray7QStringNS1_5ErrorEEEPNS1_7ContextERKS4_ESt12_PlaceholderILi1EES4_EES8_EE@Base 1.7.0
 _ZTISt5_BindIFS_IFPFSt5tupleIJN5GpgME5ErrorE10QByteArray7QStringS2_EEPNS1_7ContextEP7QThreadRKS3_RKSt8weak_ptrI9QIODeviceEESt12_PlaceholderILi1EESJ_ILi2EES3_SJ_ILi3EEEES7_S9_SE_EE@Base 1.7.0
 _ZTISt5_BindIFS_IFPFSt5tupleIJN5GpgME5ErrorE10QByteArray7QStringS2_EEPNS1_7ContextERK11QStringListESt12_PlaceholderILi1EES8_EES7_EE@Base 1.7.0
 _ZTISt5_BindIFS_IFPFSt5tupleIJN5GpgME5ErrorE10QByteArrayS3_7QStringS2_EEPKcRKS4_ES7_S4_EEPNS1_7ContextEEE@Base 1.7.0
 _ZTISt5_BindIFS_IFPFSt5tupleIJN5GpgME5ErrorE10QByteArrayS3_7QStringS2_EERKS3_ES3_EEPNS1_7ContextEEE@Base 1.7.0
 _ZTISt5_BindIFS_IFPFSt5tupleIJN5GpgME5ErrorE10QByteArrayS3_7QStringS2_EERKS4_ES4_EEPNS1_7ContextEEE@Base 1.7.0
 _ZTISt5_BindIFS_IFPFSt5tupleIJN5GpgME5ErrorE7QStringS2_EEPNS1_7ContextERKNS1_3KeyEESt12_PlaceholderILi1EES7_EES6_EE@Base 1.7.0
 _ZTISt5_BindIFS_IFPFSt5tupleIJN5GpgME5ErrorE7QStringS2_EEPNS1_7ContextERKNS1_3KeyENS1_8TofuInfo6PolicyEESt12_PlaceholderILi1EES7_SB_EES6_EE@Base 1.7.0
 _ZTISt5_BindIFS_IFPFSt5tupleIJN5GpgME5ErrorE7QStringS2_EEPNS1_7ContextERKNS1_3KeyENS7_10OwnerTrustEESt12_PlaceholderILi1EES7_SA_EES6_EE@Base 1.7.0
 _ZTISt5_BindIFS_IFPFSt5tupleIJN5GpgME5ErrorE7QStringS2_EEPNS1_7ContextERKNS1_3KeyERK9QDateTimeESt12_PlaceholderILi1EES7_SA_EES6_EE@Base 1.7.0
 _ZTISt5_BindIFS_IFPFSt5tupleIJN5GpgME5ErrorE7QStringS2_EEPNS1_7ContextERKNS1_3KeyERKS3_SB_SB_ESt12_PlaceholderILi1EES7_S3_S3_S3_EES6_EE@Base 1.7.0
 _ZTISt5_BindIFS_IFPFSt5tupleIJN5GpgME5ErrorE7QStringS2_EEPNS1_7ContextERKNS1_3KeyERKSt6vectorIjSaIjEEjS9_jESt12_PlaceholderILi1EES7_SC_jS7_jEES6_EE@Base 1.7.0
 _ZTISt5_BindIFS_IFPFSt5tupleIJN5GpgME5ErrorE7QStringS2_EEPNS1_7ContextERKNS1_3KeyEbESt12_PlaceholderILi1EES7_bEES6_EE@Base 1.7.0
 _ZTS21QGpgMENewCryptoConfig@Base 1.7.0
 _ZTS26QGpgMENewCryptoConfigEntry@Base 1.7.0
 _ZTS26QGpgMENewCryptoConfigGroup@Base 1.7.0
 _ZTS30QGpgMENewCryptoConfigComponent@Base 1.7.0
 _ZTSN5GpgME12DataProviderE@Base 1.7.0
 _ZTSN5GpgME16ProgressProviderE@Base 1.7.0
 _ZTSN6QGpgME10DecryptJobE@Base 1.7.0
 _ZTSN6QGpgME10EncryptJobE@Base 1.7.0
 _ZTSN6QGpgME10KeyListJobE@Base 1.7.0
 _ZTSN6QGpgME10SignKeyJobE@Base 1.7.0
 _ZTSN6QGpgME10SpecialJobE@Base 1.7.0
 _ZTSN6QGpgME11DownloadJobE@Base 1.7.0
 _ZTSN6QGpgME12AddUserIDJobE@Base 1.7.0
 _ZTSN6QGpgME12CryptoConfigE@Base 1.7.0
 _ZTSN6QGpgME13QGpgMESignJobE@Base 1.7.0
 _ZTSN6QGpgME13TofuPolicyJobE@Base 1.7.0
 _ZTSN6QGpgME13WKSPublishJobE@Base 1.7.0
 _ZTSN6QGpgME14ListAllKeysJobE@Base 1.7.0
 _ZTSN6QGpgME14RefreshKeysJobE@Base 1.7.0
 _ZTSN6QGpgME14SignEncryptJobE@Base 1.7.0
 _ZTSN6QGpgME15ChangeExpiryJobE@Base 1.7.0
 _ZTSN6QGpgME15ChangePasswdJobE@Base 1.7.0
 _ZTSN6QGpgME15QGpgMEDeleteJobE@Base 1.7.0
 _ZTSN6QGpgME15QGpgMEExportJobE@Base 1.7.0
 _ZTSN6QGpgME15QGpgMEImportJobE@Base 1.7.0
 _ZTSN6QGpgME15VerifyOpaqueJobE@Base 1.7.0
 _ZTSN6QGpgME16DecryptVerifyJobE@Base 1.7.0
 _ZTSN6QGpgME16KeyForMailboxJobE@Base 1.7.0
 _ZTSN6QGpgME16KeyGenerationJobE@Base 1.7.0
 _ZTSN6QGpgME16QGpgMEDecryptJobE@Base 1.7.0
 _ZTSN6QGpgME16QGpgMEEncryptJobE@Base 1.7.0
 _ZTSN6QGpgME16QGpgMEKeyListJobE@Base 1.7.0
 _ZTSN6QGpgME16QGpgMESignKeyJobE@Base 1.7.0
 _ZTSN6QGpgME17AbstractImportJobE@Base 1.7.0
 _ZTSN6QGpgME17CryptoConfigEntryE@Base 1.7.0
 _ZTSN6QGpgME17CryptoConfigGroupE@Base 1.7.0
 _ZTSN6QGpgME17QGpgMEDownloadJobE@Base 1.7.0
 _ZTSN6QGpgME17VerifyDetachedJobE@Base 1.7.0
 _ZTSN6QGpgME18QGpgMEAddUserIDJobE@Base 1.7.0
 _ZTSN6QGpgME19ChangeOwnerTrustJobE@Base 1.7.0
 _ZTSN6QGpgME19QGpgMETofuPolicyJobE@Base 1.7.0
 _ZTSN6QGpgME19QGpgMEWKSPublishJobE@Base 1.7.0
 _ZTSN6QGpgME20QGpgMEListAllKeysJobE@Base 1.7.0
 _ZTSN6QGpgME20QGpgMERefreshKeysJobE@Base 1.7.0
 _ZTSN6QGpgME20QGpgMESignEncryptJobE@Base 1.7.0
 _ZTSN6QGpgME21CryptoConfigComponentE@Base 1.7.0
 _ZTSN6QGpgME21QGpgMEChangeExpiryJobE@Base 1.7.0
 _ZTSN6QGpgME21QGpgMEChangePasswdJobE@Base 1.7.0
 _ZTSN6QGpgME21QGpgMEVerifyOpaqueJobE@Base 1.7.0
 _ZTSN6QGpgME21QIODeviceDataProviderE@Base 1.7.0
 _ZTSN6QGpgME22ImportFromKeyserverJobE@Base 1.7.0
 _ZTSN6QGpgME22QByteArrayDataProviderE@Base 1.7.0
 _ZTSN6QGpgME22QGpgMEDecryptVerifyJobE@Base 1.7.0
 _ZTSN6QGpgME22QGpgMEKeyForMailboxJobE@Base 1.7.0
 _ZTSN6QGpgME22QGpgMEKeyGenerationJobE@Base 1.7.0
 _ZTSN6QGpgME23DefaultKeyGenerationJobE@Base 1.7.0
 _ZTSN6QGpgME23QGpgMEVerifyDetachedJobE@Base 1.7.0
 _ZTSN6QGpgME24QGpgMESecretKeyExportJobE@Base 1.7.0
 _ZTSN6QGpgME25QGpgMEChangeOwnerTrustJobE@Base 1.7.0
 _ZTSN6QGpgME28QGpgMEImportFromKeyserverJobE@Base 1.7.0
 _ZTSN6QGpgME3JobE@Base 1.7.0
 _ZTSN6QGpgME7SignJobE@Base 1.7.0
 _ZTSN6QGpgME7_detail16ThreadedJobMixinINS_10DecryptJobESt5tupleIJN5GpgME16DecryptionResultE10QByteArray7QStringNS4_5ErrorEEEEE@Base 1.7.0
 _ZTSN6QGpgME7_detail16ThreadedJobMixinINS_10EncryptJobESt5tupleIJN5GpgME16EncryptionResultE10QByteArray7QStringNS4_5ErrorEEEEE@Base 1.7.0
 _ZTSN6QGpgME7_detail16ThreadedJobMixinINS_10KeyListJobESt5tupleIJN5GpgME13KeyListResultESt6vectorINS4_3KeyESaIS7_EE7QStringNS4_5ErrorEEEEE@Base 1.7.0
 _ZTSN6QGpgME7_detail16ThreadedJobMixinINS_10SignKeyJobESt5tupleIJN5GpgME5ErrorE7QStringS5_EEEE@Base 1.7.0
 _ZTSN6QGpgME7_detail16ThreadedJobMixinINS_11DownloadJobESt5tupleIJN5GpgME5ErrorE10QByteArray7QStringS5_EEEE@Base 1.7.0
 _ZTSN6QGpgME7_detail16ThreadedJobMixinINS_12AddUserIDJobESt5tupleIJN5GpgME5ErrorE7QStringS5_EEEE@Base 1.7.0
 _ZTSN6QGpgME7_detail16ThreadedJobMixinINS_13TofuPolicyJobESt5tupleIJN5GpgME5ErrorE7QStringS5_EEEE@Base 1.7.0
 _ZTSN6QGpgME7_detail16ThreadedJobMixinINS_13WKSPublishJobESt5tupleIJN5GpgME5ErrorE10QByteArrayS6_7QStringS5_EEEE@Base 1.7.0
 _ZTSN6QGpgME7_detail16ThreadedJobMixinINS_14ListAllKeysJobESt5tupleIJN5GpgME13KeyListResultESt6vectorINS4_3KeyESaIS7_EES9_7QStringNS4_5ErrorEEEEE@Base 1.7.0
 _ZTSN6QGpgME7_detail16ThreadedJobMixinINS_14SignEncryptJobESt5tupleIJN5GpgME13SigningResultENS4_16EncryptionResultE10QByteArray7QStringNS4_5ErrorEEEEE@Base 1.7.0
 _ZTSN6QGpgME7_detail16ThreadedJobMixinINS_15ChangeExpiryJobESt5tupleIJN5GpgME5ErrorE7QStringS5_EEEE@Base 1.7.0
 _ZTSN6QGpgME7_detail16ThreadedJobMixinINS_15ChangePasswdJobESt5tupleIJN5GpgME5ErrorE7QStringS5_EEEE@Base 1.7.0
 _ZTSN6QGpgME7_detail16ThreadedJobMixinINS_15VerifyOpaqueJobESt5tupleIJN5GpgME18VerificationResultE10QByteArray7QStringNS4_5ErrorEEEEE@Base 1.7.0
 _ZTSN6QGpgME7_detail16ThreadedJobMixinINS_16DecryptVerifyJobESt5tupleIJN5GpgME16DecryptionResultENS4_18VerificationResultE10QByteArray7QStringNS4_5ErrorEEEEE@Base 1.7.0
 _ZTSN6QGpgME7_detail16ThreadedJobMixinINS_16KeyForMailboxJobESt5tupleIJN5GpgME13KeyListResultENS4_3KeyENS4_6UserIDE7QStringNS4_5ErrorEEEEE@Base 1.7.0
 _ZTSN6QGpgME7_detail16ThreadedJobMixinINS_16KeyGenerationJobESt5tupleIJN5GpgME19KeyGenerationResultE10QByteArray7QStringNS4_5ErrorEEEEE@Base 1.7.0
 _ZTSN6QGpgME7_detail16ThreadedJobMixinINS_17VerifyDetachedJobESt5tupleIJN5GpgME18VerificationResultE7QStringNS4_5ErrorEEEEE@Base 1.7.0
 _ZTSN6QGpgME7_detail16ThreadedJobMixinINS_19ChangeOwnerTrustJobESt5tupleIJN5GpgME5ErrorE7QStringS5_EEEE@Base 1.7.0
 _ZTSN6QGpgME7_detail16ThreadedJobMixinINS_22ImportFromKeyserverJobESt5tupleIJN5GpgME12ImportResultE7QStringNS4_5ErrorEEEEE@Base 1.7.0
 _ZTSN6QGpgME7_detail16ThreadedJobMixinINS_7SignJobESt5tupleIJN5GpgME13SigningResultE10QByteArray7QStringNS4_5ErrorEEEEE@Base 1.7.0
 _ZTSN6QGpgME7_detail16ThreadedJobMixinINS_9DeleteJobESt5tupleIJN5GpgME5ErrorE7QStringS5_EEEE@Base 1.7.0
 _ZTSN6QGpgME7_detail16ThreadedJobMixinINS_9ExportJobESt5tupleIJN5GpgME5ErrorE10QByteArray7QStringS5_EEEE@Base 1.7.0
 _ZTSN6QGpgME7_detail16ThreadedJobMixinINS_9ImportJobESt5tupleIJN5GpgME12ImportResultE7QStringNS4_5ErrorEEEEE@Base 1.7.0
 _ZTSN6QGpgME7_detail6ThreadISt5tupleIJN5GpgME12ImportResultE7QStringNS3_5ErrorEEEEE@Base 1.7.0
 _ZTSN6QGpgME7_detail6ThreadISt5tupleIJN5GpgME13KeyListResultENS3_3KeyENS3_6UserIDE7QStringNS3_5ErrorEEEEE@Base 1.7.0
 _ZTSN6QGpgME7_detail6ThreadISt5tupleIJN5GpgME13KeyListResultESt6vectorINS3_3KeyESaIS6_EE7QStringNS3_5ErrorEEEEE@Base 1.7.0
 _ZTSN6QGpgME7_detail6ThreadISt5tupleIJN5GpgME13KeyListResultESt6vectorINS3_3KeyESaIS6_EES8_7QStringNS3_5ErrorEEEEE@Base 1.7.0
 _ZTSN6QGpgME7_detail6ThreadISt5tupleIJN5GpgME13SigningResultE10QByteArray7QStringNS3_5ErrorEEEEE@Base 1.7.0
 _ZTSN6QGpgME7_detail6ThreadISt5tupleIJN5GpgME13SigningResultENS3_16EncryptionResultE10QByteArray7QStringNS3_5ErrorEEEEE@Base 1.7.0
 _ZTSN6QGpgME7_detail6ThreadISt5tupleIJN5GpgME16DecryptionResultE10QByteArray7QStringNS3_5ErrorEEEEE@Base 1.7.0
 _ZTSN6QGpgME7_detail6ThreadISt5tupleIJN5GpgME16DecryptionResultENS3_18VerificationResultE10QByteArray7QStringNS3_5ErrorEEEEE@Base 1.7.0
 _ZTSN6QGpgME7_detail6ThreadISt5tupleIJN5GpgME16EncryptionResultE10QByteArray7QStringNS3_5ErrorEEEEE@Base 1.7.0
 _ZTSN6QGpgME7_detail6ThreadISt5tupleIJN5GpgME18VerificationResultE10QByteArray7QStringNS3_5ErrorEEEEE@Base 1.7.0
 _ZTSN6QGpgME7_detail6ThreadISt5tupleIJN5GpgME18VerificationResultE7QStringNS3_5ErrorEEEEE@Base 1.7.0
 _ZTSN6QGpgME7_detail6ThreadISt5tupleIJN5GpgME19KeyGenerationResultE10QByteArray7QStringNS3_5ErrorEEEEE@Base 1.7.0
 _ZTSN6QGpgME7_detail6ThreadISt5tupleIJN5GpgME5ErrorE10QByteArray7QStringS4_EEEE@Base 1.7.0
 _ZTSN6QGpgME7_detail6ThreadISt5tupleIJN5GpgME5ErrorE10QByteArrayS5_7QStringS4_EEEE@Base 1.7.0
 _ZTSN6QGpgME7_detail6ThreadISt5tupleIJN5GpgME5ErrorE7QStringS4_EEEE@Base 1.7.0
 _ZTSN6QGpgME8ProtocolE@Base 1.7.0
 _ZTSN6QGpgME9DeleteJobE@Base 1.7.0
 _ZTSN6QGpgME9ExportJobE@Base 1.7.0
 _ZTSN6QGpgME9ImportJobE@Base 1.7.0
 _ZTSSt11_Mutex_baseILN9__gnu_cxx12_Lock_policyE2EE@Base 1.7.0
 _ZTSSt15_Sp_counted_ptrIP26QGpgMENewCryptoConfigEntryLN9__gnu_cxx12_Lock_policyE2EE@Base 1.7.0
 _ZTSSt15_Sp_counted_ptrIP26QGpgMENewCryptoConfigGroupLN9__gnu_cxx12_Lock_policyE2EE@Base 1.7.0
 _ZTSSt15_Sp_counted_ptrIP30QGpgMENewCryptoConfigComponentLN9__gnu_cxx12_Lock_policyE2EE@Base 1.7.0
 _ZTSSt15_Sp_counted_ptrIP7QBufferLN9__gnu_cxx12_Lock_policyE2EE@Base 1.7.0
 _ZTSSt15_Sp_counted_ptrIPN5GpgME7ContextELN9__gnu_cxx12_Lock_policyE2EE@Base 1.7.0
 _ZTSSt16_Sp_counted_baseILN9__gnu_cxx12_Lock_policyE2EE@Base 1.7.0
 _ZTSSt17_Weak_result_typeISt5_BindIFPFSt5tupleIJN5GpgME12ImportResultE7QStringNS2_5ErrorEEEPNS2_7ContextERK10QByteArrayESt12_PlaceholderILi1EES9_EEE@Base 1.7.0
 _ZTSSt17_Weak_result_typeISt5_BindIFPFSt5tupleIJN5GpgME12ImportResultE7QStringNS2_5ErrorEEEPNS2_7ContextERKSt6vectorINS2_3KeyESaISA_EEESt12_PlaceholderILi1EESC_EEE@Base 1.7.0
 _ZTSSt17_Weak_result_typeISt5_BindIFPFSt5tupleIJN5GpgME13KeyListResultENS2_3KeyENS2_6UserIDE7QStringNS2_5ErrorEEEPNS2_7ContextERKS6_bESt12_PlaceholderILi1EES6_bEEE@Base 1.7.0
 _ZTSSt17_Weak_result_typeISt5_BindIFPFSt5tupleIJN5GpgME13KeyListResultESt6vectorINS2_3KeyESaIS5_EE7QStringNS2_5ErrorEEEPNS2_7ContextE11QStringListbESt12_PlaceholderILi1EESD_bEEE@Base 1.7.0
 _ZTSSt17_Weak_result_typeISt5_BindIFPFSt5tupleIJN5GpgME13KeyListResultESt6vectorINS2_3KeyESaIS5_EES7_7QStringNS2_5ErrorEEEPNS2_7ContextEbESt12_PlaceholderILi1EEbEEE@Base 1.7.0
 _ZTSSt17_Weak_result_typeISt5_BindIFPFSt5tupleIJN5GpgME13SigningResultE10QByteArray7QStringNS2_5ErrorEEEPNS2_7ContextEP7QThreadRKSt6vectorINS2_3KeyESaISD_EERKSt8weak_ptrI9QIODeviceESM_NS2_13SignatureModeEbESt12_PlaceholderILi1EESQ_ILi2EESF_SQ_ILi3EESQ_ILi4EESN_bEEE@Base 1.7.0
 _ZTSSt17_Weak_result_typeISt5_BindIFPFSt5tupleIJN5GpgME13SigningResultE10QByteArray7QStringNS2_5ErrorEEEPNS2_7ContextERKSt6vectorINS2_3KeyESaISB_EERKS4_NS2_13SignatureModeEbESt12_PlaceholderILi1EESD_S4_SI_bEEE@Base 1.7.0
 _ZTSSt17_Weak_result_typeISt5_BindIFPFSt5tupleIJN5GpgME13SigningResultENS2_16EncryptionResultE10QByteArray7QStringNS2_5ErrorEEEPNS2_7ContextEP7QThreadRKSt6vectorINS2_3KeyESaISE_EESI_RKSt8weak_ptrI9QIODeviceESN_NS9_15EncryptionFlagsEbESt12_PlaceholderILi1EESR_ILi2EESG_SG_SR_ILi3EESR_ILi4EESO_bEEE@Base 1.7.0
 _ZTSSt17_Weak_result_typeISt5_BindIFPFSt5tupleIJN5GpgME13SigningResultENS2_16EncryptionResultE10QByteArray7QStringNS2_5ErrorEEEPNS2_7ContextERKSt6vectorINS2_3KeyESaISC_EESG_RKS5_NS9_15EncryptionFlagsEbESt12_PlaceholderILi1EESE_SE_S5_SJ_bEEE@Base 1.7.0
 _ZTSSt17_Weak_result_typeISt5_BindIFPFSt5tupleIJN5GpgME16DecryptionResultE10QByteArray7QStringNS2_5ErrorEEEPNS2_7ContextEP7QThreadRKSt8weak_ptrI9QIODeviceESG_ESt12_PlaceholderILi1EESJ_ILi2EESJ_ILi3EESJ_ILi4EEEEE@Base 1.7.0
 _ZTSSt17_Weak_result_typeISt5_BindIFPFSt5tupleIJN5GpgME16DecryptionResultE10QByteArray7QStringNS2_5ErrorEEEPNS2_7ContextERKS4_ESt12_PlaceholderILi1EES4_EEE@Base 1.7.0
 _ZTSSt17_Weak_result_typeISt5_BindIFPFSt5tupleIJN5GpgME16DecryptionResultENS2_18VerificationResultE10QByteArray7QStringNS2_5ErrorEEEPNS2_7ContextEP7QThreadRKSt8weak_ptrI9QIODeviceESH_ESt12_PlaceholderILi1EESK_ILi2EESK_ILi3EESK_ILi4EEEEE@Base 1.7.0
 _ZTSSt17_Weak_result_typeISt5_BindIFPFSt5tupleIJN5GpgME16DecryptionResultENS2_18VerificationResultE10QByteArray7QStringNS2_5ErrorEEEPNS2_7ContextERKS5_ESt12_PlaceholderILi1EES5_EEE@Base 1.7.0
 _ZTSSt17_Weak_result_typeISt5_BindIFPFSt5tupleIJN5GpgME16EncryptionResultE10QByteArray7QStringNS2_5ErrorEEEPNS2_7ContextEP7QThreadRKSt6vectorINS2_3KeyESaISD_EERKSt8weak_ptrI9QIODeviceESM_NS8_15EncryptionFlagsEbESt12_PlaceholderILi1EESQ_ILi2EESF_SQ_ILi3EESQ_ILi4EESN_bEEE@Base 1.7.0
 _ZTSSt17_Weak_result_typeISt5_BindIFPFSt5tupleIJN5GpgME16EncryptionResultE10QByteArray7QStringNS2_5ErrorEEEPNS2_7ContextERKSt6vectorINS2_3KeyESaISB_EERKS4_NS8_15EncryptionFlagsEbESt12_PlaceholderILi1EESD_S4_SI_bEEE@Base 1.7.0
 _ZTSSt17_Weak_result_typeISt5_BindIFPFSt5tupleIJN5GpgME18VerificationResultE10QByteArray7QStringNS2_5ErrorEEEPNS2_7ContextEP7QThreadRKSt8weak_ptrI9QIODeviceESG_ESt12_PlaceholderILi1EESJ_ILi2EESJ_ILi3EESJ_ILi4EEEEE@Base 1.7.0
 _ZTSSt17_Weak_result_typeISt5_BindIFPFSt5tupleIJN5GpgME18VerificationResultE10QByteArray7QStringNS2_5ErrorEEEPNS2_7ContextERKS4_ESt12_PlaceholderILi1EES4_EEE@Base 1.7.0
 _ZTSSt17_Weak_result_typeISt5_BindIFPFSt5tupleIJN5GpgME18VerificationResultE7QStringNS2_5ErrorEEEPNS2_7ContextEP7QThreadRKSt8weak_ptrI9QIODeviceESF_ESt12_PlaceholderILi1EESI_ILi2EESI_ILi3EESI_ILi4EEEEE@Base 1.7.0
 _ZTSSt17_Weak_result_typeISt5_BindIFPFSt5tupleIJN5GpgME18VerificationResultE7QStringNS2_5ErrorEEEPNS2_7ContextERK10QByteArraySB_ESt12_PlaceholderILi1EES9_S9_EEE@Base 1.7.0
 _ZTSSt17_Weak_result_typeISt5_BindIFPFSt5tupleIJN5GpgME19KeyGenerationResultE10QByteArray7QStringNS2_5ErrorEEEPNS2_7ContextERKS5_ESt12_PlaceholderILi1EES5_EEE@Base 1.7.0
 _ZTSSt17_Weak_result_typeISt5_BindIFPFSt5tupleIJN5GpgME5ErrorE10QByteArray7QStringS3_EEPNS2_7ContextEP7QThreadRKS4_RKSt8weak_ptrI9QIODeviceEESt12_PlaceholderILi1EESK_ILi2EES4_SK_ILi3EEEEE@Base 1.7.0
 _ZTSSt17_Weak_result_typeISt5_BindIFPFSt5tupleIJN5GpgME5ErrorE10QByteArray7QStringS3_EEPNS2_7ContextERK11QStringListESt12_PlaceholderILi1EES9_EEE@Base 1.7.0
 _ZTSSt17_Weak_result_typeISt5_BindIFPFSt5tupleIJN5GpgME5ErrorE10QByteArrayS4_7QStringS3_EEPKcRKS5_ES8_S5_EEE@Base 1.7.0
 _ZTSSt17_Weak_result_typeISt5_BindIFPFSt5tupleIJN5GpgME5ErrorE10QByteArrayS4_7QStringS3_EERKS4_ES4_EEE@Base 1.7.0
 _ZTSSt17_Weak_result_typeISt5_BindIFPFSt5tupleIJN5GpgME5ErrorE10QByteArrayS4_7QStringS3_EERKS5_ES5_EEE@Base 1.7.0
 _ZTSSt17_Weak_result_typeISt5_BindIFPFSt5tupleIJN5GpgME5ErrorE7QStringS3_EEPNS2_7ContextERKNS2_3KeyEESt12_PlaceholderILi1EES8_EEE@Base 1.7.0
 _ZTSSt17_Weak_result_typeISt5_BindIFPFSt5tupleIJN5GpgME5ErrorE7QStringS3_EEPNS2_7ContextERKNS2_3KeyENS2_8TofuInfo6PolicyEESt12_PlaceholderILi1EES8_SC_EEE@Base 1.7.0
 _ZTSSt17_Weak_result_typeISt5_BindIFPFSt5tupleIJN5GpgME5ErrorE7QStringS3_EEPNS2_7ContextERKNS2_3KeyENS8_10OwnerTrustEESt12_PlaceholderILi1EES8_SB_EEE@Base 1.7.0
 _ZTSSt17_Weak_result_typeISt5_BindIFPFSt5tupleIJN5GpgME5ErrorE7QStringS3_EEPNS2_7ContextERKNS2_3KeyERK9QDateTimeESt12_PlaceholderILi1EES8_SB_EEE@Base 1.7.0
 _ZTSSt17_Weak_result_typeISt5_BindIFPFSt5tupleIJN5GpgME5ErrorE7QStringS3_EEPNS2_7ContextERKNS2_3KeyERKS4_SC_SC_ESt12_PlaceholderILi1EES8_S4_S4_S4_EEE@Base 1.7.0
 _ZTSSt17_Weak_result_typeISt5_BindIFPFSt5tupleIJN5GpgME5ErrorE7QStringS3_EEPNS2_7ContextERKNS2_3KeyERKSt6vectorIjSaIjEEjSA_jESt12_PlaceholderILi1EES8_SD_jS8_jEEE@Base 1.7.0
 _ZTSSt17_Weak_result_typeISt5_BindIFPFSt5tupleIJN5GpgME5ErrorE7QStringS3_EEPNS2_7ContextERKNS2_3KeyEbESt12_PlaceholderILi1EES8_bEEE@Base 1.7.0
 _ZTSSt22_Maybe_get_result_typeISt5_BindIFPFSt5tupleIJN5GpgME12ImportResultE7QStringNS2_5ErrorEEEPNS2_7ContextERK10QByteArrayESt12_PlaceholderILi1EES9_EEvE@Base 1.7.0
 _ZTSSt22_Maybe_get_result_typeISt5_BindIFPFSt5tupleIJN5GpgME12ImportResultE7QStringNS2_5ErrorEEEPNS2_7ContextERKSt6vectorINS2_3KeyESaISA_EEESt12_PlaceholderILi1EESC_EEvE@Base 1.7.0
 _ZTSSt22_Maybe_get_result_typeISt5_BindIFPFSt5tupleIJN5GpgME13KeyListResultENS2_3KeyENS2_6UserIDE7QStringNS2_5ErrorEEEPNS2_7ContextERKS6_bESt12_PlaceholderILi1EES6_bEEvE@Base 1.7.0
 _ZTSSt22_Maybe_get_result_typeISt5_BindIFPFSt5tupleIJN5GpgME13KeyListResultESt6vectorINS2_3KeyESaIS5_EE7QStringNS2_5ErrorEEEPNS2_7ContextE11QStringListbESt12_PlaceholderILi1EESD_bEEvE@Base 1.7.0
 _ZTSSt22_Maybe_get_result_typeISt5_BindIFPFSt5tupleIJN5GpgME13KeyListResultESt6vectorINS2_3KeyESaIS5_EES7_7QStringNS2_5ErrorEEEPNS2_7ContextEbESt12_PlaceholderILi1EEbEEvE@Base 1.7.0
 _ZTSSt22_Maybe_get_result_typeISt5_BindIFPFSt5tupleIJN5GpgME13SigningResultE10QByteArray7QStringNS2_5ErrorEEEPNS2_7ContextEP7QThreadRKSt6vectorINS2_3KeyESaISD_EERKSt8weak_ptrI9QIODeviceESM_NS2_13SignatureModeEbESt12_PlaceholderILi1EESQ_ILi2EESF_SQ_ILi3EESQ_ILi4EESN_bEEvE@Base 1.7.0
 _ZTSSt22_Maybe_get_result_typeISt5_BindIFPFSt5tupleIJN5GpgME13SigningResultE10QByteArray7QStringNS2_5ErrorEEEPNS2_7ContextERKSt6vectorINS2_3KeyESaISB_EERKS4_NS2_13SignatureModeEbESt12_PlaceholderILi1EESD_S4_SI_bEEvE@Base 1.7.0
 _ZTSSt22_Maybe_get_result_typeISt5_BindIFPFSt5tupleIJN5GpgME13SigningResultENS2_16EncryptionResultE10QByteArray7QStringNS2_5ErrorEEEPNS2_7ContextEP7QThreadRKSt6vectorINS2_3KeyESaISE_EESI_RKSt8weak_ptrI9QIODeviceESN_NS9_15EncryptionFlagsEbESt12_PlaceholderILi1EESR_ILi2EESG_SG_SR_ILi3EESR_ILi4EESO_bEEvE@Base 1.7.0
 _ZTSSt22_Maybe_get_result_typeISt5_BindIFPFSt5tupleIJN5GpgME13SigningResultENS2_16EncryptionResultE10QByteArray7QStringNS2_5ErrorEEEPNS2_7ContextERKSt6vectorINS2_3KeyESaISC_EESG_RKS5_NS9_15EncryptionFlagsEbESt12_PlaceholderILi1EESE_SE_S5_SJ_bEEvE@Base 1.7.0
 _ZTSSt22_Maybe_get_result_typeISt5_BindIFPFSt5tupleIJN5GpgME16DecryptionResultE10QByteArray7QStringNS2_5ErrorEEEPNS2_7ContextEP7QThreadRKSt8weak_ptrI9QIODeviceESG_ESt12_PlaceholderILi1EESJ_ILi2EESJ_ILi3EESJ_ILi4EEEEvE@Base 1.7.0
 _ZTSSt22_Maybe_get_result_typeISt5_BindIFPFSt5tupleIJN5GpgME16DecryptionResultE10QByteArray7QStringNS2_5ErrorEEEPNS2_7ContextERKS4_ESt12_PlaceholderILi1EES4_EEvE@Base 1.7.0
 _ZTSSt22_Maybe_get_result_typeISt5_BindIFPFSt5tupleIJN5GpgME16DecryptionResultENS2_18VerificationResultE10QByteArray7QStringNS2_5ErrorEEEPNS2_7ContextEP7QThreadRKSt8weak_ptrI9QIODeviceESH_ESt12_PlaceholderILi1EESK_ILi2EESK_ILi3EESK_ILi4EEEEvE@Base 1.7.0
 _ZTSSt22_Maybe_get_result_typeISt5_BindIFPFSt5tupleIJN5GpgME16DecryptionResultENS2_18VerificationResultE10QByteArray7QStringNS2_5ErrorEEEPNS2_7ContextERKS5_ESt12_PlaceholderILi1EES5_EEvE@Base 1.7.0
 _ZTSSt22_Maybe_get_result_typeISt5_BindIFPFSt5tupleIJN5GpgME16EncryptionResultE10QByteArray7QStringNS2_5ErrorEEEPNS2_7ContextEP7QThreadRKSt6vectorINS2_3KeyESaISD_EERKSt8weak_ptrI9QIODeviceESM_NS8_15EncryptionFlagsEbESt12_PlaceholderILi1EESQ_ILi2EESF_SQ_ILi3EESQ_ILi4EESN_bEEvE@Base 1.7.0
 _ZTSSt22_Maybe_get_result_typeISt5_BindIFPFSt5tupleIJN5GpgME16EncryptionResultE10QByteArray7QStringNS2_5ErrorEEEPNS2_7ContextERKSt6vectorINS2_3KeyESaISB_EERKS4_NS8_15EncryptionFlagsEbESt12_PlaceholderILi1EESD_S4_SI_bEEvE@Base 1.7.0
 _ZTSSt22_Maybe_get_result_typeISt5_BindIFPFSt5tupleIJN5GpgME18VerificationResultE10QByteArray7QStringNS2_5ErrorEEEPNS2_7ContextEP7QThreadRKSt8weak_ptrI9QIODeviceESG_ESt12_PlaceholderILi1EESJ_ILi2EESJ_ILi3EESJ_ILi4EEEEvE@Base 1.7.0
 _ZTSSt22_Maybe_get_result_typeISt5_BindIFPFSt5tupleIJN5GpgME18VerificationResultE10QByteArray7QStringNS2_5ErrorEEEPNS2_7ContextERKS4_ESt12_PlaceholderILi1EES4_EEvE@Base 1.7.0
 _ZTSSt22_Maybe_get_result_typeISt5_BindIFPFSt5tupleIJN5GpgME18VerificationResultE7QStringNS2_5ErrorEEEPNS2_7ContextEP7QThreadRKSt8weak_ptrI9QIODeviceESF_ESt12_PlaceholderILi1EESI_ILi2EESI_ILi3EESI_ILi4EEEEvE@Base 1.7.0
 _ZTSSt22_Maybe_get_result_typeISt5_BindIFPFSt5tupleIJN5GpgME18VerificationResultE7QStringNS2_5ErrorEEEPNS2_7ContextERK10QByteArraySB_ESt12_PlaceholderILi1EES9_S9_EEvE@Base 1.7.0
 _ZTSSt22_Maybe_get_result_typeISt5_BindIFPFSt5tupleIJN5GpgME19KeyGenerationResultE10QByteArray7QStringNS2_5ErrorEEEPNS2_7ContextERKS5_ESt12_PlaceholderILi1EES5_EEvE@Base 1.7.0
 _ZTSSt22_Maybe_get_result_typeISt5_BindIFPFSt5tupleIJN5GpgME5ErrorE10QByteArray7QStringS3_EEPNS2_7ContextEP7QThreadRKS4_RKSt8weak_ptrI9QIODeviceEESt12_PlaceholderILi1EESK_ILi2EES4_SK_ILi3EEEEvE@Base 1.7.0
 _ZTSSt22_Maybe_get_result_typeISt5_BindIFPFSt5tupleIJN5GpgME5ErrorE10QByteArray7QStringS3_EEPNS2_7ContextERK11QStringListESt12_PlaceholderILi1EES9_EEvE@Base 1.7.0
 _ZTSSt22_Maybe_get_result_typeISt5_BindIFPFSt5tupleIJN5GpgME5ErrorE10QByteArrayS4_7QStringS3_EEPKcRKS5_ES8_S5_EEvE@Base 1.7.0
 _ZTSSt22_Maybe_get_result_typeISt5_BindIFPFSt5tupleIJN5GpgME5ErrorE10QByteArrayS4_7QStringS3_EERKS4_ES4_EEvE@Base 1.7.0
 _ZTSSt22_Maybe_get_result_typeISt5_BindIFPFSt5tupleIJN5GpgME5ErrorE10QByteArrayS4_7QStringS3_EERKS5_ES5_EEvE@Base 1.7.0
 _ZTSSt22_Maybe_get_result_typeISt5_BindIFPFSt5tupleIJN5GpgME5ErrorE7QStringS3_EEPNS2_7ContextERKNS2_3KeyEESt12_PlaceholderILi1EES8_EEvE@Base 1.7.0
 _ZTSSt22_Maybe_get_result_typeISt5_BindIFPFSt5tupleIJN5GpgME5ErrorE7QStringS3_EEPNS2_7ContextERKNS2_3KeyENS2_8TofuInfo6PolicyEESt12_PlaceholderILi1EES8_SC_EEvE@Base 1.7.0
 _ZTSSt22_Maybe_get_result_typeISt5_BindIFPFSt5tupleIJN5GpgME5ErrorE7QStringS3_EEPNS2_7ContextERKNS2_3KeyENS8_10OwnerTrustEESt12_PlaceholderILi1EES8_SB_EEvE@Base 1.7.0
 _ZTSSt22_Maybe_get_result_typeISt5_BindIFPFSt5tupleIJN5GpgME5ErrorE7QStringS3_EEPNS2_7ContextERKNS2_3KeyERK9QDateTimeESt12_PlaceholderILi1EES8_SB_EEvE@Base 1.7.0
 _ZTSSt22_Maybe_get_result_typeISt5_BindIFPFSt5tupleIJN5GpgME5ErrorE7QStringS3_EEPNS2_7ContextERKNS2_3KeyERKS4_SC_SC_ESt12_PlaceholderILi1EES8_S4_S4_S4_EEvE@Base 1.7.0
 _ZTSSt22_Maybe_get_result_typeISt5_BindIFPFSt5tupleIJN5GpgME5ErrorE7QStringS3_EEPNS2_7ContextERKNS2_3KeyERKSt6vectorIjSaIjEEjSA_jESt12_PlaceholderILi1EES8_SD_jS8_jEEvE@Base 1.7.0
 _ZTSSt22_Maybe_get_result_typeISt5_BindIFPFSt5tupleIJN5GpgME5ErrorE7QStringS3_EEPNS2_7ContextERKNS2_3KeyEbESt12_PlaceholderILi1EES8_bEEvE@Base 1.7.0
 _ZTSSt22_Weak_result_type_implISt5_BindIFPFSt5tupleIJN5GpgME12ImportResultE7QStringNS2_5ErrorEEEPNS2_7ContextERK10QByteArrayESt12_PlaceholderILi1EES9_EEE@Base 1.7.0
 _ZTSSt22_Weak_result_type_implISt5_BindIFPFSt5tupleIJN5GpgME12ImportResultE7QStringNS2_5ErrorEEEPNS2_7ContextERKSt6vectorINS2_3KeyESaISA_EEESt12_PlaceholderILi1EESC_EEE@Base 1.7.0
 _ZTSSt22_Weak_result_type_implISt5_BindIFPFSt5tupleIJN5GpgME13KeyListResultENS2_3KeyENS2_6UserIDE7QStringNS2_5ErrorEEEPNS2_7ContextERKS6_bESt12_PlaceholderILi1EES6_bEEE@Base 1.7.0
 _ZTSSt22_Weak_result_type_implISt5_BindIFPFSt5tupleIJN5GpgME13KeyListResultESt6vectorINS2_3KeyESaIS5_EE7QStringNS2_5ErrorEEEPNS2_7ContextE11QStringListbESt12_PlaceholderILi1EESD_bEEE@Base 1.7.0
 _ZTSSt22_Weak_result_type_implISt5_BindIFPFSt5tupleIJN5GpgME13KeyListResultESt6vectorINS2_3KeyESaIS5_EES7_7QStringNS2_5ErrorEEEPNS2_7ContextEbESt12_PlaceholderILi1EEbEEE@Base 1.7.0
 _ZTSSt22_Weak_result_type_implISt5_BindIFPFSt5tupleIJN5GpgME13SigningResultE10QByteArray7QStringNS2_5ErrorEEEPNS2_7ContextEP7QThreadRKSt6vectorINS2_3KeyESaISD_EERKSt8weak_ptrI9QIODeviceESM_NS2_13SignatureModeEbESt12_PlaceholderILi1EESQ_ILi2EESF_SQ_ILi3EESQ_ILi4EESN_bEEE@Base 1.7.0
 _ZTSSt22_Weak_result_type_implISt5_BindIFPFSt5tupleIJN5GpgME13SigningResultE10QByteArray7QStringNS2_5ErrorEEEPNS2_7ContextERKSt6vectorINS2_3KeyESaISB_EERKS4_NS2_13SignatureModeEbESt12_PlaceholderILi1EESD_S4_SI_bEEE@Base 1.7.0
 _ZTSSt22_Weak_result_type_implISt5_BindIFPFSt5tupleIJN5GpgME13SigningResultENS2_16EncryptionResultE10QByteArray7QStringNS2_5ErrorEEEPNS2_7ContextEP7QThreadRKSt6vectorINS2_3KeyESaISE_EESI_RKSt8weak_ptrI9QIODeviceESN_NS9_15EncryptionFlagsEbESt12_PlaceholderILi1EESR_ILi2EESG_SG_SR_ILi3EESR_ILi4EESO_bEEE@Base 1.7.0
 _ZTSSt22_Weak_result_type_implISt5_BindIFPFSt5tupleIJN5GpgME13SigningResultENS2_16EncryptionResultE10QByteArray7QStringNS2_5ErrorEEEPNS2_7ContextERKSt6vectorINS2_3KeyESaISC_EESG_RKS5_NS9_15EncryptionFlagsEbESt12_PlaceholderILi1EESE_SE_S5_SJ_bEEE@Base 1.7.0
 _ZTSSt22_Weak_result_type_implISt5_BindIFPFSt5tupleIJN5GpgME16DecryptionResultE10QByteArray7QStringNS2_5ErrorEEEPNS2_7ContextEP7QThreadRKSt8weak_ptrI9QIODeviceESG_ESt12_PlaceholderILi1EESJ_ILi2EESJ_ILi3EESJ_ILi4EEEEE@Base 1.7.0
 _ZTSSt22_Weak_result_type_implISt5_BindIFPFSt5tupleIJN5GpgME16DecryptionResultE10QByteArray7QStringNS2_5ErrorEEEPNS2_7ContextERKS4_ESt12_PlaceholderILi1EES4_EEE@Base 1.7.0
 _ZTSSt22_Weak_result_type_implISt5_BindIFPFSt5tupleIJN5GpgME16DecryptionResultENS2_18VerificationResultE10QByteArray7QStringNS2_5ErrorEEEPNS2_7ContextEP7QThreadRKSt8weak_ptrI9QIODeviceESH_ESt12_PlaceholderILi1EESK_ILi2EESK_ILi3EESK_ILi4EEEEE@Base 1.7.0
 _ZTSSt22_Weak_result_type_implISt5_BindIFPFSt5tupleIJN5GpgME16DecryptionResultENS2_18VerificationResultE10QByteArray7QStringNS2_5ErrorEEEPNS2_7ContextERKS5_ESt12_PlaceholderILi1EES5_EEE@Base 1.7.0
 _ZTSSt22_Weak_result_type_implISt5_BindIFPFSt5tupleIJN5GpgME16EncryptionResultE10QByteArray7QStringNS2_5ErrorEEEPNS2_7ContextEP7QThreadRKSt6vectorINS2_3KeyESaISD_EERKSt8weak_ptrI9QIODeviceESM_NS8_15EncryptionFlagsEbESt12_PlaceholderILi1EESQ_ILi2EESF_SQ_ILi3EESQ_ILi4EESN_bEEE@Base 1.7.0
 _ZTSSt22_Weak_result_type_implISt5_BindIFPFSt5tupleIJN5GpgME16EncryptionResultE10QByteArray7QStringNS2_5ErrorEEEPNS2_7ContextERKSt6vectorINS2_3KeyESaISB_EERKS4_NS8_15EncryptionFlagsEbESt12_PlaceholderILi1EESD_S4_SI_bEEE@Base 1.7.0
 _ZTSSt22_Weak_result_type_implISt5_BindIFPFSt5tupleIJN5GpgME18VerificationResultE10QByteArray7QStringNS2_5ErrorEEEPNS2_7ContextEP7QThreadRKSt8weak_ptrI9QIODeviceESG_ESt12_PlaceholderILi1EESJ_ILi2EESJ_ILi3EESJ_ILi4EEEEE@Base 1.7.0
 _ZTSSt22_Weak_result_type_implISt5_BindIFPFSt5tupleIJN5GpgME18VerificationResultE10QByteArray7QStringNS2_5ErrorEEEPNS2_7ContextERKS4_ESt12_PlaceholderILi1EES4_EEE@Base 1.7.0
 _ZTSSt22_Weak_result_type_implISt5_BindIFPFSt5tupleIJN5GpgME18VerificationResultE7QStringNS2_5ErrorEEEPNS2_7ContextEP7QThreadRKSt8weak_ptrI9QIODeviceESF_ESt12_PlaceholderILi1EESI_ILi2EESI_ILi3EESI_ILi4EEEEE@Base 1.7.0
 _ZTSSt22_Weak_result_type_implISt5_BindIFPFSt5tupleIJN5GpgME18VerificationResultE7QStringNS2_5ErrorEEEPNS2_7ContextERK10QByteArraySB_ESt12_PlaceholderILi1EES9_S9_EEE@Base 1.7.0
 _ZTSSt22_Weak_result_type_implISt5_BindIFPFSt5tupleIJN5GpgME19KeyGenerationResultE10QByteArray7QStringNS2_5ErrorEEEPNS2_7ContextERKS5_ESt12_PlaceholderILi1EES5_EEE@Base 1.7.0
 _ZTSSt22_Weak_result_type_implISt5_BindIFPFSt5tupleIJN5GpgME5ErrorE10QByteArray7QStringS3_EEPNS2_7ContextEP7QThreadRKS4_RKSt8weak_ptrI9QIODeviceEESt12_PlaceholderILi1EESK_ILi2EES4_SK_ILi3EEEEE@Base 1.7.0
 _ZTSSt22_Weak_result_type_implISt5_BindIFPFSt5tupleIJN5GpgME5ErrorE10QByteArray7QStringS3_EEPNS2_7ContextERK11QStringListESt12_PlaceholderILi1EES9_EEE@Base 1.7.0
 _ZTSSt22_Weak_result_type_implISt5_BindIFPFSt5tupleIJN5GpgME5ErrorE10QByteArrayS4_7QStringS3_EEPKcRKS5_ES8_S5_EEE@Base 1.7.0
 _ZTSSt22_Weak_result_type_implISt5_BindIFPFSt5tupleIJN5GpgME5ErrorE10QByteArrayS4_7QStringS3_EERKS4_ES4_EEE@Base 1.7.0
 _ZTSSt22_Weak_result_type_implISt5_BindIFPFSt5tupleIJN5GpgME5ErrorE10QByteArrayS4_7QStringS3_EERKS5_ES5_EEE@Base 1.7.0
 _ZTSSt22_Weak_result_type_implISt5_BindIFPFSt5tupleIJN5GpgME5ErrorE7QStringS3_EEPNS2_7ContextERKNS2_3KeyEESt12_PlaceholderILi1EES8_EEE@Base 1.7.0
 _ZTSSt22_Weak_result_type_implISt5_BindIFPFSt5tupleIJN5GpgME5ErrorE7QStringS3_EEPNS2_7ContextERKNS2_3KeyENS2_8TofuInfo6PolicyEESt12_PlaceholderILi1EES8_SC_EEE@Base 1.7.0
 _ZTSSt22_Weak_result_type_implISt5_BindIFPFSt5tupleIJN5GpgME5ErrorE7QStringS3_EEPNS2_7ContextERKNS2_3KeyENS8_10OwnerTrustEESt12_PlaceholderILi1EES8_SB_EEE@Base 1.7.0
 _ZTSSt22_Weak_result_type_implISt5_BindIFPFSt5tupleIJN5GpgME5ErrorE7QStringS3_EEPNS2_7ContextERKNS2_3KeyERK9QDateTimeESt12_PlaceholderILi1EES8_SB_EEE@Base 1.7.0
 _ZTSSt22_Weak_result_type_implISt5_BindIFPFSt5tupleIJN5GpgME5ErrorE7QStringS3_EEPNS2_7ContextERKNS2_3KeyERKS4_SC_SC_ESt12_PlaceholderILi1EES8_S4_S4_S4_EEE@Base 1.7.0
 _ZTSSt22_Weak_result_type_implISt5_BindIFPFSt5tupleIJN5GpgME5ErrorE7QStringS3_EEPNS2_7ContextERKNS2_3KeyERKSt6vectorIjSaIjEEjSA_jESt12_PlaceholderILi1EES8_SD_jS8_jEEE@Base 1.7.0
 _ZTSSt22_Weak_result_type_implISt5_BindIFPFSt5tupleIJN5GpgME5ErrorE7QStringS3_EEPNS2_7ContextERKNS2_3KeyEbESt12_PlaceholderILi1EES8_bEEE@Base 1.7.0
 _ZTSSt23enable_shared_from_thisI30QGpgMENewCryptoConfigComponentE@Base 1.7.0
 _ZTSSt5_BindIFS_IFPFSt5tupleIJN5GpgME12ImportResultE7QStringNS1_5ErrorEEEPNS1_7ContextERK10QByteArrayESt12_PlaceholderILi1EES8_EES7_EE@Base 1.7.0
 _ZTSSt5_BindIFS_IFPFSt5tupleIJN5GpgME12ImportResultE7QStringNS1_5ErrorEEEPNS1_7ContextERKSt6vectorINS1_3KeyESaIS9_EEESt12_PlaceholderILi1EESB_EES7_EE@Base 1.7.0
 _ZTSSt5_BindIFS_IFPFSt5tupleIJN5GpgME13KeyListResultENS1_3KeyENS1_6UserIDE7QStringNS1_5ErrorEEEPNS1_7ContextERKS5_bESt12_PlaceholderILi1EES5_bEES9_EE@Base 1.7.0
 _ZTSSt5_BindIFS_IFPFSt5tupleIJN5GpgME13KeyListResultESt6vectorINS1_3KeyESaIS4_EE7QStringNS1_5ErrorEEEPNS1_7ContextE11QStringListbESt12_PlaceholderILi1EESC_bEESB_EE@Base 1.7.0
 _ZTSSt5_BindIFS_IFPFSt5tupleIJN5GpgME13KeyListResultESt6vectorINS1_3KeyESaIS4_EES6_7QStringNS1_5ErrorEEEPNS1_7ContextEbESt12_PlaceholderILi1EEbEESB_EE@Base 1.7.0
 _ZTSSt5_BindIFS_IFPFSt5tupleIJN5GpgME13SigningResultE10QByteArray7QStringNS1_5ErrorEEEPNS1_7ContextEP7QThreadRKSt6vectorINS1_3KeyESaISC_EERKSt8weak_ptrI9QIODeviceESL_NS1_13SignatureModeEbESt12_PlaceholderILi1EESP_ILi2EESE_SP_ILi3EESP_ILi4EESM_bEES8_SA_SJ_SJ_EE@Base 1.7.0
 _ZTSSt5_BindIFS_IFPFSt5tupleIJN5GpgME13SigningResultE10QByteArray7QStringNS1_5ErrorEEEPNS1_7ContextERKSt6vectorINS1_3KeyESaISA_EERKS3_NS1_13SignatureModeEbESt12_PlaceholderILi1EESC_S3_SH_bEES8_EE@Base 1.7.0
 _ZTSSt5_BindIFS_IFPFSt5tupleIJN5GpgME13SigningResultENS1_16EncryptionResultE10QByteArray7QStringNS1_5ErrorEEEPNS1_7ContextEP7QThreadRKSt6vectorINS1_3KeyESaISD_EESH_RKSt8weak_ptrI9QIODeviceESM_NS8_15EncryptionFlagsEbESt12_PlaceholderILi1EESQ_ILi2EESF_SF_SQ_ILi3EESQ_ILi4EESN_bEES9_SB_SK_SK_EE@Base 1.7.0
 _ZTSSt5_BindIFS_IFPFSt5tupleIJN5GpgME13SigningResultENS1_16EncryptionResultE10QByteArray7QStringNS1_5ErrorEEEPNS1_7ContextERKSt6vectorINS1_3KeyESaISB_EESF_RKS4_NS8_15EncryptionFlagsEbESt12_PlaceholderILi1EESD_SD_S4_SI_bEES9_EE@Base 1.7.0
 _ZTSSt5_BindIFS_IFPFSt5tupleIJN5GpgME16DecryptionResultE10QByteArray7QStringNS1_5ErrorEEEPNS1_7ContextEP7QThreadRKSt8weak_ptrI9QIODeviceESF_ESt12_PlaceholderILi1EESI_ILi2EESI_ILi3EESI_ILi4EEEES8_SA_SD_SD_EE@Base 1.7.0
 _ZTSSt5_BindIFS_IFPFSt5tupleIJN5GpgME16DecryptionResultE10QByteArray7QStringNS1_5ErrorEEEPNS1_7ContextERKS3_ESt12_PlaceholderILi1EES3_EES8_EE@Base 1.7.0
 _ZTSSt5_BindIFS_IFPFSt5tupleIJN5GpgME16DecryptionResultENS1_18VerificationResultE10QByteArray7QStringNS1_5ErrorEEEPNS1_7ContextEP7QThreadRKSt8weak_ptrI9QIODeviceESG_ESt12_PlaceholderILi1EESJ_ILi2EESJ_ILi3EESJ_ILi4EEEES9_SB_SE_SE_EE@Base 1.7.0
 _ZTSSt5_BindIFS_IFPFSt5tupleIJN5GpgME16DecryptionResultENS1_18VerificationResultE10QByteArray7QStringNS1_5ErrorEEEPNS1_7ContextERKS4_ESt12_PlaceholderILi1EES4_EES9_EE@Base 1.7.0
 _ZTSSt5_BindIFS_IFPFSt5tupleIJN5GpgME16EncryptionResultE10QByteArray7QStringNS1_5ErrorEEEPNS1_7ContextEP7QThreadRKSt6vectorINS1_3KeyESaISC_EERKSt8weak_ptrI9QIODeviceESL_NS7_15EncryptionFlagsEbESt12_PlaceholderILi1EESP_ILi2EESE_SP_ILi3EESP_ILi4EESM_bEES8_SA_SJ_SJ_EE@Base 1.7.0
 _ZTSSt5_BindIFS_IFPFSt5tupleIJN5GpgME16EncryptionResultE10QByteArray7QStringNS1_5ErrorEEEPNS1_7ContextERKSt6vectorINS1_3KeyESaISA_EERKS3_NS7_15EncryptionFlagsEbESt12_PlaceholderILi1EESC_S3_SH_bEES8_EE@Base 1.7.0
 _ZTSSt5_BindIFS_IFPFSt5tupleIJN5GpgME18VerificationResultE10QByteArray7QStringNS1_5ErrorEEEPNS1_7ContextEP7QThreadRKSt8weak_ptrI9QIODeviceESF_ESt12_PlaceholderILi1EESI_ILi2EESI_ILi3EESI_ILi4EEEES8_SA_SD_SD_EE@Base 1.7.0
 _ZTSSt5_BindIFS_IFPFSt5tupleIJN5GpgME18VerificationResultE10QByteArray7QStringNS1_5ErrorEEEPNS1_7ContextERKS3_ESt12_PlaceholderILi1EES3_EES8_EE@Base 1.7.0
 _ZTSSt5_BindIFS_IFPFSt5tupleIJN5GpgME18VerificationResultE7QStringNS1_5ErrorEEEPNS1_7ContextEP7QThreadRKSt8weak_ptrI9QIODeviceESE_ESt12_PlaceholderILi1EESH_ILi2EESH_ILi3EESH_ILi4EEEES7_S9_SC_SC_EE@Base 1.7.0
 _ZTSSt5_BindIFS_IFPFSt5tupleIJN5GpgME18VerificationResultE7QStringNS1_5ErrorEEEPNS1_7ContextERK10QByteArraySA_ESt12_PlaceholderILi1EES8_S8_EES7_EE@Base 1.7.0
 _ZTSSt5_BindIFS_IFPFSt5tupleIJN5GpgME19KeyGenerationResultE10QByteArray7QStringNS1_5ErrorEEEPNS1_7ContextERKS4_ESt12_PlaceholderILi1EES4_EES8_EE@Base 1.7.0
 _ZTSSt5_BindIFS_IFPFSt5tupleIJN5GpgME5ErrorE10QByteArray7QStringS2_EEPNS1_7ContextEP7QThreadRKS3_RKSt8weak_ptrI9QIODeviceEESt12_PlaceholderILi1EESJ_ILi2EES3_SJ_ILi3EEEES7_S9_SE_EE@Base 1.7.0
 _ZTSSt5_BindIFS_IFPFSt5tupleIJN5GpgME5ErrorE10QByteArray7QStringS2_EEPNS1_7ContextERK11QStringListESt12_PlaceholderILi1EES8_EES7_EE@Base 1.7.0
 _ZTSSt5_BindIFS_IFPFSt5tupleIJN5GpgME5ErrorE10QByteArrayS3_7QStringS2_EEPKcRKS4_ES7_S4_EEPNS1_7ContextEEE@Base 1.7.0
 _ZTSSt5_BindIFS_IFPFSt5tupleIJN5GpgME5ErrorE10QByteArrayS3_7QStringS2_EERKS3_ES3_EEPNS1_7ContextEEE@Base 1.7.0
 _ZTSSt5_BindIFS_IFPFSt5tupleIJN5GpgME5ErrorE10QByteArrayS3_7QStringS2_EERKS4_ES4_EEPNS1_7ContextEEE@Base 1.7.0
 _ZTSSt5_BindIFS_IFPFSt5tupleIJN5GpgME5ErrorE7QStringS2_EEPNS1_7ContextERKNS1_3KeyEESt12_PlaceholderILi1EES7_EES6_EE@Base 1.7.0
 _ZTSSt5_BindIFS_IFPFSt5tupleIJN5GpgME5ErrorE7QStringS2_EEPNS1_7ContextERKNS1_3KeyENS1_8TofuInfo6PolicyEESt12_PlaceholderILi1EES7_SB_EES6_EE@Base 1.7.0
 _ZTSSt5_BindIFS_IFPFSt5tupleIJN5GpgME5ErrorE7QStringS2_EEPNS1_7ContextERKNS1_3KeyENS7_10OwnerTrustEESt12_PlaceholderILi1EES7_SA_EES6_EE@Base 1.7.0
 _ZTSSt5_BindIFS_IFPFSt5tupleIJN5GpgME5ErrorE7QStringS2_EEPNS1_7ContextERKNS1_3KeyERK9QDateTimeESt12_PlaceholderILi1EES7_SA_EES6_EE@Base 1.7.0
 _ZTSSt5_BindIFS_IFPFSt5tupleIJN5GpgME5ErrorE7QStringS2_EEPNS1_7ContextERKNS1_3KeyERKS3_SB_SB_ESt12_PlaceholderILi1EES7_S3_S3_S3_EES6_EE@Base 1.7.0
 _ZTSSt5_BindIFS_IFPFSt5tupleIJN5GpgME5ErrorE7QStringS2_EEPNS1_7ContextERKNS1_3KeyERKSt6vectorIjSaIjEEjS9_jESt12_PlaceholderILi1EES7_SC_jS7_jEES6_EE@Base 1.7.0
 _ZTSSt5_BindIFS_IFPFSt5tupleIJN5GpgME5ErrorE7QStringS2_EEPNS1_7ContextERKNS1_3KeyEbESt12_PlaceholderILi1EES7_bEES6_EE@Base 1.7.0
 _ZTV21QGpgMENewCryptoConfig@Base 1.7.0
 _ZTV26QGpgMENewCryptoConfigEntry@Base 1.7.0
 _ZTV26QGpgMENewCryptoConfigGroup@Base 1.7.0
 _ZTV30QGpgMENewCryptoConfigComponent@Base 1.7.0
 _ZTVN6QGpgME10DecryptJobE@Base 1.7.0
 _ZTVN6QGpgME10EncryptJobE@Base 1.7.0
 _ZTVN6QGpgME10KeyListJobE@Base 1.7.0
 _ZTVN6QGpgME10SignKeyJobE@Base 1.7.0
 _ZTVN6QGpgME10SpecialJobE@Base 1.7.0
 _ZTVN6QGpgME11DownloadJobE@Base 1.7.0
 _ZTVN6QGpgME12AddUserIDJobE@Base 1.7.0
 _ZTVN6QGpgME13QGpgMESignJobE@Base 1.7.0
 _ZTVN6QGpgME13TofuPolicyJobE@Base 1.7.0
 _ZTVN6QGpgME13WKSPublishJobE@Base 1.7.0
 _ZTVN6QGpgME14ListAllKeysJobE@Base 1.7.0
 _ZTVN6QGpgME14RefreshKeysJobE@Base 1.7.0
 _ZTVN6QGpgME14SignEncryptJobE@Base 1.7.0
 _ZTVN6QGpgME15ChangeExpiryJobE@Base 1.7.0
 _ZTVN6QGpgME15ChangePasswdJobE@Base 1.7.0
 _ZTVN6QGpgME15QGpgMEDeleteJobE@Base 1.7.0
 _ZTVN6QGpgME15QGpgMEExportJobE@Base 1.7.0
 _ZTVN6QGpgME15QGpgMEImportJobE@Base 1.7.0
 _ZTVN6QGpgME15VerifyOpaqueJobE@Base 1.7.0
 _ZTVN6QGpgME16DecryptVerifyJobE@Base 1.7.0
 _ZTVN6QGpgME16KeyForMailboxJobE@Base 1.7.0
 _ZTVN6QGpgME16KeyGenerationJobE@Base 1.7.0
 _ZTVN6QGpgME16QGpgMEDecryptJobE@Base 1.7.0
 _ZTVN6QGpgME16QGpgMEEncryptJobE@Base 1.7.0
 _ZTVN6QGpgME16QGpgMEKeyListJobE@Base 1.7.0
 _ZTVN6QGpgME16QGpgMESignKeyJobE@Base 1.7.0
 _ZTVN6QGpgME17AbstractImportJobE@Base 1.7.0
 _ZTVN6QGpgME17QGpgMEDownloadJobE@Base 1.7.0
 _ZTVN6QGpgME17VerifyDetachedJobE@Base 1.7.0
 _ZTVN6QGpgME18QGpgMEAddUserIDJobE@Base 1.7.0
 _ZTVN6QGpgME19ChangeOwnerTrustJobE@Base 1.7.0
 _ZTVN6QGpgME19QGpgMETofuPolicyJobE@Base 1.7.0
 _ZTVN6QGpgME19QGpgMEWKSPublishJobE@Base 1.7.0
 _ZTVN6QGpgME20QGpgMEListAllKeysJobE@Base 1.7.0
 _ZTVN6QGpgME20QGpgMERefreshKeysJobE@Base 1.7.0
 _ZTVN6QGpgME20QGpgMESignEncryptJobE@Base 1.7.0
 _ZTVN6QGpgME21QGpgMEChangeExpiryJobE@Base 1.7.0
 _ZTVN6QGpgME21QGpgMEChangePasswdJobE@Base 1.7.0
 _ZTVN6QGpgME21QGpgMEVerifyOpaqueJobE@Base 1.7.0
 _ZTVN6QGpgME21QIODeviceDataProviderE@Base 1.7.0
 _ZTVN6QGpgME22ImportFromKeyserverJobE@Base 1.7.0
 _ZTVN6QGpgME22QByteArrayDataProviderE@Base 1.7.0
 _ZTVN6QGpgME22QGpgMEDecryptVerifyJobE@Base 1.7.0
 _ZTVN6QGpgME22QGpgMEKeyForMailboxJobE@Base 1.7.0
 _ZTVN6QGpgME22QGpgMEKeyGenerationJobE@Base 1.7.0
 _ZTVN6QGpgME23DefaultKeyGenerationJobE@Base 1.7.0
 _ZTVN6QGpgME23QGpgMEVerifyDetachedJobE@Base 1.7.0
 _ZTVN6QGpgME24QGpgMESecretKeyExportJobE@Base 1.7.0
 _ZTVN6QGpgME25QGpgMEChangeOwnerTrustJobE@Base 1.7.0
 _ZTVN6QGpgME28QGpgMEImportFromKeyserverJobE@Base 1.7.0
 _ZTVN6QGpgME3JobE@Base 1.7.0
 _ZTVN6QGpgME7SignJobE@Base 1.7.0
 _ZTVN6QGpgME7_detail16ThreadedJobMixinINS_10DecryptJobESt5tupleIJN5GpgME16DecryptionResultE10QByteArray7QStringNS4_5ErrorEEEEE@Base 1.7.0
 _ZTVN6QGpgME7_detail16ThreadedJobMixinINS_10EncryptJobESt5tupleIJN5GpgME16EncryptionResultE10QByteArray7QStringNS4_5ErrorEEEEE@Base 1.7.0
 _ZTVN6QGpgME7_detail16ThreadedJobMixinINS_10KeyListJobESt5tupleIJN5GpgME13KeyListResultESt6vectorINS4_3KeyESaIS7_EE7QStringNS4_5ErrorEEEEE@Base 1.7.0
 _ZTVN6QGpgME7_detail16ThreadedJobMixinINS_10SignKeyJobESt5tupleIJN5GpgME5ErrorE7QStringS5_EEEE@Base 1.7.0
 _ZTVN6QGpgME7_detail16ThreadedJobMixinINS_11DownloadJobESt5tupleIJN5GpgME5ErrorE10QByteArray7QStringS5_EEEE@Base 1.7.0
 _ZTVN6QGpgME7_detail16ThreadedJobMixinINS_12AddUserIDJobESt5tupleIJN5GpgME5ErrorE7QStringS5_EEEE@Base 1.7.0
 _ZTVN6QGpgME7_detail16ThreadedJobMixinINS_13TofuPolicyJobESt5tupleIJN5GpgME5ErrorE7QStringS5_EEEE@Base 1.7.0
 _ZTVN6QGpgME7_detail16ThreadedJobMixinINS_13WKSPublishJobESt5tupleIJN5GpgME5ErrorE10QByteArrayS6_7QStringS5_EEEE@Base 1.7.0
 _ZTVN6QGpgME7_detail16ThreadedJobMixinINS_14ListAllKeysJobESt5tupleIJN5GpgME13KeyListResultESt6vectorINS4_3KeyESaIS7_EES9_7QStringNS4_5ErrorEEEEE@Base 1.7.0
 _ZTVN6QGpgME7_detail16ThreadedJobMixinINS_14SignEncryptJobESt5tupleIJN5GpgME13SigningResultENS4_16EncryptionResultE10QByteArray7QStringNS4_5ErrorEEEEE@Base 1.7.0
 _ZTVN6QGpgME7_detail16ThreadedJobMixinINS_15ChangeExpiryJobESt5tupleIJN5GpgME5ErrorE7QStringS5_EEEE@Base 1.7.0
 _ZTVN6QGpgME7_detail16ThreadedJobMixinINS_15ChangePasswdJobESt5tupleIJN5GpgME5ErrorE7QStringS5_EEEE@Base 1.7.0
 _ZTVN6QGpgME7_detail16ThreadedJobMixinINS_15VerifyOpaqueJobESt5tupleIJN5GpgME18VerificationResultE10QByteArray7QStringNS4_5ErrorEEEEE@Base 1.7.0
 _ZTVN6QGpgME7_detail16ThreadedJobMixinINS_16DecryptVerifyJobESt5tupleIJN5GpgME16DecryptionResultENS4_18VerificationResultE10QByteArray7QStringNS4_5ErrorEEEEE@Base 1.7.0
 _ZTVN6QGpgME7_detail16ThreadedJobMixinINS_16KeyForMailboxJobESt5tupleIJN5GpgME13KeyListResultENS4_3KeyENS4_6UserIDE7QStringNS4_5ErrorEEEEE@Base 1.7.0
 _ZTVN6QGpgME7_detail16ThreadedJobMixinINS_16KeyGenerationJobESt5tupleIJN5GpgME19KeyGenerationResultE10QByteArray7QStringNS4_5ErrorEEEEE@Base 1.7.0
 _ZTVN6QGpgME7_detail16ThreadedJobMixinINS_17VerifyDetachedJobESt5tupleIJN5GpgME18VerificationResultE7QStringNS4_5ErrorEEEEE@Base 1.7.0
 _ZTVN6QGpgME7_detail16ThreadedJobMixinINS_19ChangeOwnerTrustJobESt5tupleIJN5GpgME5ErrorE7QStringS5_EEEE@Base 1.7.0
 _ZTVN6QGpgME7_detail16ThreadedJobMixinINS_22ImportFromKeyserverJobESt5tupleIJN5GpgME12ImportResultE7QStringNS4_5ErrorEEEEE@Base 1.7.0
 _ZTVN6QGpgME7_detail16ThreadedJobMixinINS_7SignJobESt5tupleIJN5GpgME13SigningResultE10QByteArray7QStringNS4_5ErrorEEEEE@Base 1.7.0
 _ZTVN6QGpgME7_detail16ThreadedJobMixinINS_9DeleteJobESt5tupleIJN5GpgME5ErrorE7QStringS5_EEEE@Base 1.7.0
 _ZTVN6QGpgME7_detail16ThreadedJobMixinINS_9ExportJobESt5tupleIJN5GpgME5ErrorE10QByteArray7QStringS5_EEEE@Base 1.7.0
 _ZTVN6QGpgME7_detail16ThreadedJobMixinINS_9ImportJobESt5tupleIJN5GpgME12ImportResultE7QStringNS4_5ErrorEEEEE@Base 1.7.0
 _ZTVN6QGpgME7_detail6ThreadISt5tupleIJN5GpgME12ImportResultE7QStringNS3_5ErrorEEEEE@Base 1.7.0
 _ZTVN6QGpgME7_detail6ThreadISt5tupleIJN5GpgME13KeyListResultENS3_3KeyENS3_6UserIDE7QStringNS3_5ErrorEEEEE@Base 1.7.0
 _ZTVN6QGpgME7_detail6ThreadISt5tupleIJN5GpgME13KeyListResultESt6vectorINS3_3KeyESaIS6_EE7QStringNS3_5ErrorEEEEE@Base 1.7.0
 _ZTVN6QGpgME7_detail6ThreadISt5tupleIJN5GpgME13KeyListResultESt6vectorINS3_3KeyESaIS6_EES8_7QStringNS3_5ErrorEEEEE@Base 1.7.0
 _ZTVN6QGpgME7_detail6ThreadISt5tupleIJN5GpgME13SigningResultE10QByteArray7QStringNS3_5ErrorEEEEE@Base 1.7.0
 _ZTVN6QGpgME7_detail6ThreadISt5tupleIJN5GpgME13SigningResultENS3_16EncryptionResultE10QByteArray7QStringNS3_5ErrorEEEEE@Base 1.7.0
 _ZTVN6QGpgME7_detail6ThreadISt5tupleIJN5GpgME16DecryptionResultE10QByteArray7QStringNS3_5ErrorEEEEE@Base 1.7.0
 _ZTVN6QGpgME7_detail6ThreadISt5tupleIJN5GpgME16DecryptionResultENS3_18VerificationResultE10QByteArray7QStringNS3_5ErrorEEEEE@Base 1.7.0
 _ZTVN6QGpgME7_detail6ThreadISt5tupleIJN5GpgME16EncryptionResultE10QByteArray7QStringNS3_5ErrorEEEEE@Base 1.7.0
 _ZTVN6QGpgME7_detail6ThreadISt5tupleIJN5GpgME18VerificationResultE10QByteArray7QStringNS3_5ErrorEEEEE@Base 1.7.0
 _ZTVN6QGpgME7_detail6ThreadISt5tupleIJN5GpgME18VerificationResultE7QStringNS3_5ErrorEEEEE@Base 1.7.0
 _ZTVN6QGpgME7_detail6ThreadISt5tupleIJN5GpgME19KeyGenerationResultE10QByteArray7QStringNS3_5ErrorEEEEE@Base 1.7.0
 _ZTVN6QGpgME7_detail6ThreadISt5tupleIJN5GpgME5ErrorE10QByteArray7QStringS4_EEEE@Base 1.7.0
 _ZTVN6QGpgME7_detail6ThreadISt5tupleIJN5GpgME5ErrorE10QByteArrayS5_7QStringS4_EEEE@Base 1.7.0
 _ZTVN6QGpgME7_detail6ThreadISt5tupleIJN5GpgME5ErrorE7QStringS4_EEEE@Base 1.7.0
 _ZTVN6QGpgME9DeleteJobE@Base 1.7.0
 _ZTVN6QGpgME9ExportJobE@Base 1.7.0
 _ZTVN6QGpgME9ImportJobE@Base 1.7.0
 _ZTVSt15_Sp_counted_ptrIP26QGpgMENewCryptoConfigEntryLN9__gnu_cxx12_Lock_policyE2EE@Base 1.7.0
 _ZTVSt15_Sp_counted_ptrIP26QGpgMENewCryptoConfigGroupLN9__gnu_cxx12_Lock_policyE2EE@Base 1.7.0
 _ZTVSt15_Sp_counted_ptrIP30QGpgMENewCryptoConfigComponentLN9__gnu_cxx12_Lock_policyE2EE@Base 1.7.0
 _ZTVSt15_Sp_counted_ptrIP7QBufferLN9__gnu_cxx12_Lock_policyE2EE@Base 1.7.0
 _ZTVSt15_Sp_counted_ptrIPN5GpgME7ContextELN9__gnu_cxx12_Lock_policyE2EE@Base 1.7.0
 (c++)"non-virtual thunk to QGpgME::QGpgMEAddUserIDJob::~QGpgMEAddUserIDJob()@Base" 1.7.0
 (c++)"non-virtual thunk to QGpgME::QGpgMEChangeExpiryJob::~QGpgMEChangeExpiryJob()@Base" 1.7.0
 (c++)"non-virtual thunk to QGpgME::QGpgMEChangeOwnerTrustJob::~QGpgMEChangeOwnerTrustJob()@Base" 1.7.0
 (c++)"non-virtual thunk to QGpgME::QGpgMEChangePasswdJob::~QGpgMEChangePasswdJob()@Base" 1.7.0
 (c++)"non-virtual thunk to QGpgME::QGpgMEDecryptJob::~QGpgMEDecryptJob()@Base" 1.7.0
 (c++)"non-virtual thunk to QGpgME::QGpgMEDecryptVerifyJob::~QGpgMEDecryptVerifyJob()@Base" 1.7.0
 (c++)"non-virtual thunk to QGpgME::QGpgMEDeleteJob::~QGpgMEDeleteJob()@Base" 1.7.0
 (c++)"non-virtual thunk to QGpgME::QGpgMEDownloadJob::~QGpgMEDownloadJob()@Base" 1.7.0
 (c++)"non-virtual thunk to QGpgME::QGpgMEEncryptJob::~QGpgMEEncryptJob()@Base" 1.7.0
 (c++)"non-virtual thunk to QGpgME::QGpgMEExportJob::~QGpgMEExportJob()@Base" 1.7.0
 (c++)"non-virtual thunk to QGpgME::QGpgMEImportFromKeyserverJob::~QGpgMEImportFromKeyserverJob()@Base" 1.7.0
 (c++)"non-virtual thunk to QGpgME::QGpgMEImportJob::~QGpgMEImportJob()@Base" 1.7.0
 (c++)"non-virtual thunk to QGpgME::QGpgMEKeyForMailboxJob::~QGpgMEKeyForMailboxJob()@Base" 1.7.0
 (c++)"non-virtual thunk to QGpgME::QGpgMEKeyGenerationJob::~QGpgMEKeyGenerationJob()@Base" 1.7.0
 (c++)"non-virtual thunk to QGpgME::QGpgMEKeyListJob::~QGpgMEKeyListJob()@Base" 1.7.0
 (c++)"non-virtual thunk to QGpgME::QGpgMEListAllKeysJob::~QGpgMEListAllKeysJob()@Base" 1.7.0
 (c++)"non-virtual thunk to QGpgME::QGpgMESignEncryptJob::~QGpgMESignEncryptJob()@Base" 1.7.0
 (c++)"non-virtual thunk to QGpgME::QGpgMESignJob::~QGpgMESignJob()@Base" 1.7.0
 (c++)"non-virtual thunk to QGpgME::QGpgMESignKeyJob::~QGpgMESignKeyJob()@Base" 1.7.0
 (c++)"non-virtual thunk to QGpgME::QGpgMETofuPolicyJob::~QGpgMETofuPolicyJob()@Base" 1.7.0
 (c++)"non-virtual thunk to QGpgME::QGpgMEVerifyDetachedJob::~QGpgMEVerifyDetachedJob()@Base" 1.7.0
 (c++)"non-virtual thunk to QGpgME::QGpgMEVerifyOpaqueJob::~QGpgMEVerifyOpaqueJob()@Base" 1.7.0
 (c++)"non-virtual thunk to QGpgME::QGpgMEWKSPublishJob::~QGpgMEWKSPublishJob()@Base" 1.7.0
 (c++)"non-virtual thunk to QGpgME::_detail::ThreadedJobMixin<QGpgME::AddUserIDJob, std::tuple<GpgME::Error, QString, GpgME::Error> >::showProgress(char const*, int, int, int)@Base" 1.7.0
 (c++)"non-virtual thunk to QGpgME::_detail::ThreadedJobMixin<QGpgME::AddUserIDJob, std::tuple<GpgME::Error, QString, GpgME::Error> >::~ThreadedJobMixin()@Base" 1.7.0
 (c++)"non-virtual thunk to QGpgME::_detail::ThreadedJobMixin<QGpgME::ChangeExpiryJob, std::tuple<GpgME::Error, QString, GpgME::Error> >::showProgress(char const*, int, int, int)@Base" 1.7.0
 (c++)"non-virtual thunk to QGpgME::_detail::ThreadedJobMixin<QGpgME::ChangeExpiryJob, std::tuple<GpgME::Error, QString, GpgME::Error> >::~ThreadedJobMixin()@Base" 1.7.0
 (c++)"non-virtual thunk to QGpgME::_detail::ThreadedJobMixin<QGpgME::ChangeOwnerTrustJob, std::tuple<GpgME::Error, QString, GpgME::Error> >::showProgress(char const*, int, int, int)@Base" 1.7.0
 (c++)"non-virtual thunk to QGpgME::_detail::ThreadedJobMixin<QGpgME::ChangeOwnerTrustJob, std::tuple<GpgME::Error, QString, GpgME::Error> >::~ThreadedJobMixin()@Base" 1.7.0
 (c++)"non-virtual thunk to QGpgME::_detail::ThreadedJobMixin<QGpgME::ChangePasswdJob, std::tuple<GpgME::Error, QString, GpgME::Error> >::showProgress(char const*, int, int, int)@Base" 1.7.0
 (c++)"non-virtual thunk to QGpgME::_detail::ThreadedJobMixin<QGpgME::ChangePasswdJob, std::tuple<GpgME::Error, QString, GpgME::Error> >::~ThreadedJobMixin()@Base" 1.7.0
 (c++)"non-virtual thunk to QGpgME::_detail::ThreadedJobMixin<QGpgME::DecryptJob, std::tuple<GpgME::DecryptionResult, QByteArray, QString, GpgME::Error> >::showProgress(char const*, int, int, int)@Base" 1.7.0
 (c++)"non-virtual thunk to QGpgME::_detail::ThreadedJobMixin<QGpgME::DecryptJob, std::tuple<GpgME::DecryptionResult, QByteArray, QString, GpgME::Error> >::~ThreadedJobMixin()@Base" 1.7.0
 (c++)"non-virtual thunk to QGpgME::_detail::ThreadedJobMixin<QGpgME::DecryptVerifyJob, std::tuple<GpgME::DecryptionResult, GpgME::VerificationResult, QByteArray, QString, GpgME::Error> >::showProgress(char const*, int, int, int)@Base" 1.7.0
 (c++)"non-virtual thunk to QGpgME::_detail::ThreadedJobMixin<QGpgME::DecryptVerifyJob, std::tuple<GpgME::DecryptionResult, GpgME::VerificationResult, QByteArray, QString, GpgME::Error> >::~ThreadedJobMixin()@Base" 1.7.0
 (c++)"non-virtual thunk to QGpgME::_detail::ThreadedJobMixin<QGpgME::DeleteJob, std::tuple<GpgME::Error, QString, GpgME::Error> >::showProgress(char const*, int, int, int)@Base" 1.7.0
 (c++)"non-virtual thunk to QGpgME::_detail::ThreadedJobMixin<QGpgME::DeleteJob, std::tuple<GpgME::Error, QString, GpgME::Error> >::~ThreadedJobMixin()@Base" 1.7.0
 (c++)"non-virtual thunk to QGpgME::_detail::ThreadedJobMixin<QGpgME::DownloadJob, std::tuple<GpgME::Error, QByteArray, QString, GpgME::Error> >::showProgress(char const*, int, int, int)@Base" 1.7.0
 (c++)"non-virtual thunk to QGpgME::_detail::ThreadedJobMixin<QGpgME::DownloadJob, std::tuple<GpgME::Error, QByteArray, QString, GpgME::Error> >::~ThreadedJobMixin()@Base" 1.7.0
 (c++)"non-virtual thunk to QGpgME::_detail::ThreadedJobMixin<QGpgME::EncryptJob, std::tuple<GpgME::EncryptionResult, QByteArray, QString, GpgME::Error> >::showProgress(char const*, int, int, int)@Base" 1.7.0
 (c++)"non-virtual thunk to QGpgME::_detail::ThreadedJobMixin<QGpgME::EncryptJob, std::tuple<GpgME::EncryptionResult, QByteArray, QString, GpgME::Error> >::~ThreadedJobMixin()@Base" 1.7.0
 (c++)"non-virtual thunk to QGpgME::_detail::ThreadedJobMixin<QGpgME::ExportJob, std::tuple<GpgME::Error, QByteArray, QString, GpgME::Error> >::showProgress(char const*, int, int, int)@Base" 1.7.0
 (c++)"non-virtual thunk to QGpgME::_detail::ThreadedJobMixin<QGpgME::ExportJob, std::tuple<GpgME::Error, QByteArray, QString, GpgME::Error> >::~ThreadedJobMixin()@Base" 1.7.0
 (c++)"non-virtual thunk to QGpgME::_detail::ThreadedJobMixin<QGpgME::ImportFromKeyserverJob, std::tuple<GpgME::ImportResult, QString, GpgME::Error> >::showProgress(char const*, int, int, int)@Base" 1.7.0
 (c++)"non-virtual thunk to QGpgME::_detail::ThreadedJobMixin<QGpgME::ImportFromKeyserverJob, std::tuple<GpgME::ImportResult, QString, GpgME::Error> >::~ThreadedJobMixin()@Base" 1.7.0
 (c++)"non-virtual thunk to QGpgME::_detail::ThreadedJobMixin<QGpgME::ImportJob, std::tuple<GpgME::ImportResult, QString, GpgME::Error> >::showProgress(char const*, int, int, int)@Base" 1.7.0
 (c++)"non-virtual thunk to QGpgME::_detail::ThreadedJobMixin<QGpgME::ImportJob, std::tuple<GpgME::ImportResult, QString, GpgME::Error> >::~ThreadedJobMixin()@Base" 1.7.0
 (c++)"non-virtual thunk to QGpgME::_detail::ThreadedJobMixin<QGpgME::KeyForMailboxJob, std::tuple<GpgME::KeyListResult, GpgME::Key, GpgME::UserID, QString, GpgME::Error> >::showProgress(char const*, int, int, int)@Base" 1.7.0
 (c++)"non-virtual thunk to QGpgME::_detail::ThreadedJobMixin<QGpgME::KeyForMailboxJob, std::tuple<GpgME::KeyListResult, GpgME::Key, GpgME::UserID, QString, GpgME::Error> >::~ThreadedJobMixin()@Base" 1.7.0
 (c++)"non-virtual thunk to QGpgME::_detail::ThreadedJobMixin<QGpgME::KeyGenerationJob, std::tuple<GpgME::KeyGenerationResult, QByteArray, QString, GpgME::Error> >::showProgress(char const*, int, int, int)@Base" 1.7.0
 (c++)"non-virtual thunk to QGpgME::_detail::ThreadedJobMixin<QGpgME::KeyGenerationJob, std::tuple<GpgME::KeyGenerationResult, QByteArray, QString, GpgME::Error> >::~ThreadedJobMixin()@Base" 1.7.0
 (c++)"non-virtual thunk to QGpgME::_detail::ThreadedJobMixin<QGpgME::KeyListJob, std::tuple<GpgME::KeyListResult, std::vector<GpgME::Key, std::allocator<GpgME::Key> >, QString, GpgME::Error> >::showProgress(char const*, int, int, int)@Base" 1.7.0
 (c++)"non-virtual thunk to QGpgME::_detail::ThreadedJobMixin<QGpgME::KeyListJob, std::tuple<GpgME::KeyListResult, std::vector<GpgME::Key, std::allocator<GpgME::Key> >, QString, GpgME::Error> >::~ThreadedJobMixin()@Base" 1.7.0
 (c++)"non-virtual thunk to QGpgME::_detail::ThreadedJobMixin<QGpgME::ListAllKeysJob, std::tuple<GpgME::KeyListResult, std::vector<GpgME::Key, std::allocator<GpgME::Key> >, std::vector<GpgME::Key, std::allocator<GpgME::Key> >, QString, GpgME::Error> >::showProgress(char const*, int, int, int)@Base" 1.7.0
 (c++)"non-virtual thunk to QGpgME::_detail::ThreadedJobMixin<QGpgME::ListAllKeysJob, std::tuple<GpgME::KeyListResult, std::vector<GpgME::Key, std::allocator<GpgME::Key> >, std::vector<GpgME::Key, std::allocator<GpgME::Key> >, QString, GpgME::Error> >::~ThreadedJobMixin()@Base" 1.7.0
 (c++)"non-virtual thunk to QGpgME::_detail::ThreadedJobMixin<QGpgME::SignEncryptJob, std::tuple<GpgME::SigningResult, GpgME::EncryptionResult, QByteArray, QString, GpgME::Error> >::showProgress(char const*, int, int, int)@Base" 1.7.0
 (c++)"non-virtual thunk to QGpgME::_detail::ThreadedJobMixin<QGpgME::SignEncryptJob, std::tuple<GpgME::SigningResult, GpgME::EncryptionResult, QByteArray, QString, GpgME::Error> >::~ThreadedJobMixin()@Base" 1.7.0
 (c++)"non-virtual thunk to QGpgME::_detail::ThreadedJobMixin<QGpgME::SignJob, std::tuple<GpgME::SigningResult, QByteArray, QString, GpgME::Error> >::showProgress(char const*, int, int, int)@Base" 1.7.0
 (c++)"non-virtual thunk to QGpgME::_detail::ThreadedJobMixin<QGpgME::SignJob, std::tuple<GpgME::SigningResult, QByteArray, QString, GpgME::Error> >::~ThreadedJobMixin()@Base" 1.7.0
 (c++)"non-virtual thunk to QGpgME::_detail::ThreadedJobMixin<QGpgME::SignKeyJob, std::tuple<GpgME::Error, QString, GpgME::Error> >::showProgress(char const*, int, int, int)@Base" 1.7.0
 (c++)"non-virtual thunk to QGpgME::_detail::ThreadedJobMixin<QGpgME::SignKeyJob, std::tuple<GpgME::Error, QString, GpgME::Error> >::~ThreadedJobMixin()@Base" 1.7.0
 (c++)"non-virtual thunk to QGpgME::_detail::ThreadedJobMixin<QGpgME::TofuPolicyJob, std::tuple<GpgME::Error, QString, GpgME::Error> >::showProgress(char const*, int, int, int)@Base" 1.7.0
 (c++)"non-virtual thunk to QGpgME::_detail::ThreadedJobMixin<QGpgME::TofuPolicyJob, std::tuple<GpgME::Error, QString, GpgME::Error> >::~ThreadedJobMixin()@Base" 1.7.0
 (c++)"non-virtual thunk to QGpgME::_detail::ThreadedJobMixin<QGpgME::VerifyDetachedJob, std::tuple<GpgME::VerificationResult, QString, GpgME::Error> >::showProgress(char const*, int, int, int)@Base" 1.7.0
 (c++)"non-virtual thunk to QGpgME::_detail::ThreadedJobMixin<QGpgME::VerifyDetachedJob, std::tuple<GpgME::VerificationResult, QString, GpgME::Error> >::~ThreadedJobMixin()@Base" 1.7.0
 (c++)"non-virtual thunk to QGpgME::_detail::ThreadedJobMixin<QGpgME::VerifyOpaqueJob, std::tuple<GpgME::VerificationResult, QByteArray, QString, GpgME::Error> >::showProgress(char const*, int, int, int)@Base" 1.7.0
 (c++)"non-virtual thunk to QGpgME::_detail::ThreadedJobMixin<QGpgME::VerifyOpaqueJob, std::tuple<GpgME::VerificationResult, QByteArray, QString, GpgME::Error> >::~ThreadedJobMixin()@Base" 1.7.0
 (c++)"non-virtual thunk to QGpgME::_detail::ThreadedJobMixin<QGpgME::WKSPublishJob, std::tuple<GpgME::Error, QByteArray, QByteArray, QString, GpgME::Error> >::showProgress(char const*, int, int, int)@Base" 1.7.0
 (c++)"non-virtual thunk to QGpgME::_detail::ThreadedJobMixin<QGpgME::WKSPublishJob, std::tuple<GpgME::Error, QByteArray, QByteArray, QString, GpgME::Error> >::~ThreadedJobMixin()@Base" 1.7.0
